	.cpu cortex-m3
	.eabi_attribute 20, 1
	.eabi_attribute 21, 1
	.eabi_attribute 23, 3
	.eabi_attribute 24, 1
	.eabi_attribute 25, 1
	.eabi_attribute 26, 1
	.eabi_attribute 30, 1
	.eabi_attribute 34, 1
	.eabi_attribute 18, 4
	.file	"circbuffer.c"
	.text
.Ltext0:
	.cfi_sections	.debug_frame
	.section	.text.init_circ_buf,"ax",%progbits
	.align	1
	.global	init_circ_buf
	.arch armv7-m
	.syntax unified
	.thumb
	.thumb_func
	.fpu softvfp
	.type	init_circ_buf, %function
init_circ_buf:
.LVL0:
.LFB0:
	.file 1 "naeusb/circbuffer.c"
	.loc 1 38 1 view -0
	.cfi_startproc
	@ args = 0, pretend = 0, frame = 0
	@ frame_needed = 0, uses_anonymous_args = 0
	@ link register save eliminated.
	.loc 1 39 5 view .LVU1
	.loc 1 39 29 is_stmt 0 view .LVU2
	movs	r3, #0
	str	r3, [r0, #4]
	.loc 1 39 16 view .LVU3
	str	r3, [r0]
	.loc 1 40 5 is_stmt 1 view .LVU4
	.loc 1 40 19 is_stmt 0 view .LVU5
	str	r3, [r0, #8]
	.loc 1 41 1 view .LVU6
	bx	lr
	.cfi_endproc
.LFE0:
	.size	init_circ_buf, .-init_circ_buf
	.section	.text.add_to_circ_buf,"ax",%progbits
	.align	1
	.global	add_to_circ_buf
	.syntax unified
	.thumb
	.thumb_func
	.fpu softvfp
	.type	add_to_circ_buf, %function
add_to_circ_buf:
.LVL1:
.LFB1:
	.loc 1 50 1 is_stmt 1 view -0
	.cfi_startproc
	@ args = 0, pretend = 0, frame = 0
	@ frame_needed = 0, uses_anonymous_args = 0
	@ link register save eliminated.
	.loc 1 50 1 is_stmt 0 view .LVU8
	push	{r4}
.LCFI0:
	.cfi_def_cfa_offset 4
	.cfi_offset 4, -4
	.loc 1 52 5 is_stmt 1 view .LVU9
	.loc 1 52 18 is_stmt 0 view .LVU10
	ldr	r4, [r0]
.LVL2:
	.loc 1 53 5 is_stmt 1 view .LVU11
	.loc 1 53 12 is_stmt 0 view .LVU12
	adds	r4, r4, #1
.LVL3:
	.loc 1 54 5 is_stmt 1 view .LVU13
	.loc 1 54 8 is_stmt 0 view .LVU14
	cmp	r4, #199
	bhi	.L8
.LVL4:
.L5:
	.loc 1 56 11 is_stmt 1 view .LVU15
	.loc 1 56 27 is_stmt 0 view .LVU16
	ldr	r3, [r0, #4]
	.loc 1 56 11 view .LVU17
	cmp	r3, r4
	bne	.L10
	.loc 1 58 9 is_stmt 1 view .LVU18
	.loc 1 58 12 is_stmt 0 view .LVU19
	cmp	r2, #0
	bne	.L5
	.loc 1 60 13 is_stmt 1 view .LVU20
	.loc 1 60 17 is_stmt 0 view .LVU21
	ldr	r3, [r0, #8]
	.loc 1 60 26 view .LVU22
	adds	r3, r3, #1
	str	r3, [r0, #8]
	.loc 1 61 13 is_stmt 1 view .LVU23
	b	.L2
.L8:
	.loc 1 55 17 is_stmt 0 view .LVU24
	movs	r4, #0
.LVL5:
	.loc 1 55 17 view .LVU25
	b	.L5
.LVL6:
.L10:
	.loc 1 68 5 is_stmt 1 view .LVU26
	.loc 1 68 19 is_stmt 0 view .LVU27
	ldr	r3, [r0]
	.loc 1 68 27 view .LVU28
	add	r3, r3, r0
	strb	r1, [r3, #12]
	.loc 1 69 5 is_stmt 1 view .LVU29
	.loc 1 69 16 is_stmt 0 view .LVU30
	str	r4, [r0]
.L2:
	.loc 1 70 1 view .LVU31
	pop	{r4}
.LCFI1:
	.cfi_restore 4
	.cfi_def_cfa_offset 0
.LVL7:
	.loc 1 70 1 view .LVU32
	bx	lr
	.cfi_endproc
.LFE1:
	.size	add_to_circ_buf, .-add_to_circ_buf
	.section	.text.get_from_circ_buf,"ax",%progbits
	.align	1
	.global	get_from_circ_buf
	.syntax unified
	.thumb
	.thumb_func
	.fpu softvfp
	.type	get_from_circ_buf, %function
get_from_circ_buf:
.LVL8:
.LFB2:
	.loc 1 81 1 is_stmt 1 view -0
	.cfi_startproc
	@ args = 0, pretend = 0, frame = 0
	@ frame_needed = 0, uses_anonymous_args = 0
	@ link register save eliminated.
	.loc 1 81 1 is_stmt 0 view .LVU34
	mov	r2, r0
	.loc 1 84 5 is_stmt 1 view .LVU35
	.loc 1 84 18 is_stmt 0 view .LVU36
	ldr	r3, [r0, #4]
.LVL9:
	.loc 1 85 5 is_stmt 1 view .LVU37
	.loc 1 85 13 is_stmt 0 view .LVU38
	adds	r1, r0, r3
	ldrb	r0, [r1, #12]	@ zero_extendqisi2
.LVL10:
	.loc 1 87 5 is_stmt 1 view .LVU39
	.loc 1 87 24 is_stmt 0 view .LVU40
	ldr	r1, [r2]
	.loc 1 87 8 view .LVU41
	cmp	r1, r3
	beq	.L14
	.loc 1 90 5 is_stmt 1 view .LVU42
	.loc 1 90 12 is_stmt 0 view .LVU43
	adds	r3, r3, #1
.LVL11:
	.loc 1 91 5 is_stmt 1 view .LVU44
	.loc 1 91 8 is_stmt 0 view .LVU45
	cmp	r3, #199
	bls	.L13
	.loc 1 93 17 view .LVU46
	movs	r3, #0
.LVL12:
.L13:
	.loc 1 94 5 is_stmt 1 view .LVU47
	.loc 1 94 16 is_stmt 0 view .LVU48
	str	r3, [r2, #4]
	.loc 1 96 5 is_stmt 1 view .LVU49
	.loc 1 96 12 is_stmt 0 view .LVU50
	bx	lr
.L14:
	.loc 1 88 16 view .LVU51
	movs	r0, #255
.LVL13:
	.loc 1 97 1 view .LVU52
	bx	lr
	.cfi_endproc
.LFE2:
	.size	get_from_circ_buf, .-get_from_circ_buf
	.section	.text.circ_buf_has_char,"ax",%progbits
	.align	1
	.global	circ_buf_has_char
	.syntax unified
	.thumb
	.thumb_func
	.fpu softvfp
	.type	circ_buf_has_char, %function
circ_buf_has_char:
.LVL14:
.LFB3:
	.loc 1 108 1 is_stmt 1 view -0
	.cfi_startproc
	@ args = 0, pretend = 0, frame = 0
	@ frame_needed = 0, uses_anonymous_args = 0
	@ link register save eliminated.
	.loc 1 110 5 view .LVU54
	.loc 1 110 18 is_stmt 0 view .LVU55
	ldr	r3, [r0]
.LVL15:
	.loc 1 111 5 is_stmt 1 view .LVU56
	.loc 1 111 25 is_stmt 0 view .LVU57
	ldr	r0, [r0, #4]
.LVL16:
	.loc 1 112 1 view .LVU58
	subs	r0, r0, r3
	it	ne
	movne	r0, #1
	bx	lr
	.cfi_endproc
.LFE3:
	.size	circ_buf_has_char, .-circ_buf_has_char
	.section	.text.circ_buf_count,"ax",%progbits
	.align	1
	.global	circ_buf_count
	.syntax unified
	.thumb
	.thumb_func
	.fpu softvfp
	.type	circ_buf_count, %function
circ_buf_count:
.LVL17:
.LFB4:
	.loc 1 122 1 is_stmt 1 view -0
	.cfi_startproc
	@ args = 0, pretend = 0, frame = 0
	@ frame_needed = 0, uses_anonymous_args = 0
	@ link register save eliminated.
	.loc 1 123 5 view .LVU60
	.loc 1 125 5 view .LVU61
	.loc 1 125 17 is_stmt 0 view .LVU62
	ldr	r3, [r0]
.LVL18:
	.loc 1 126 5 is_stmt 1 view .LVU63
	.loc 1 126 18 is_stmt 0 view .LVU64
	ldr	r0, [r0, #4]
.LVL19:
	.loc 1 127 5 is_stmt 1 view .LVU65
	.loc 1 127 8 is_stmt 0 view .LVU66
	subs	r0, r3, r0
.LVL20:
	.loc 1 127 8 view .LVU67
	bmi	.L19
.LVL21:
.L18:
	.loc 1 129 5 is_stmt 1 view .LVU68
	.loc 1 130 1 is_stmt 0 view .LVU69
	bx	lr
.L19:
	.loc 1 128 9 is_stmt 1 view .LVU70
	.loc 1 128 15 is_stmt 0 view .LVU71
	adds	r0, r0, #200
.LVL22:
	.loc 1 128 15 view .LVU72
	b	.L18
	.cfi_endproc
.LFE4:
	.size	circ_buf_count, .-circ_buf_count
	.text
.Letext0:
	.file 2 "c:\\program files (x86)\\gnu arm embedded toolchain\\9 2020-q2-update\\arm-none-eabi\\include\\machine\\_default_types.h"
	.file 3 "c:\\program files (x86)\\gnu arm embedded toolchain\\9 2020-q2-update\\arm-none-eabi\\include\\sys\\_stdint.h"
	.file 4 "naeusb/circbuffer.h"