	.cpu cortex-m3
	.eabi_attribute 20, 1
	.eabi_attribute 21, 1
	.eabi_attribute 23, 3
	.eabi_attribute 24, 1
	.eabi_attribute 25, 1
	.eabi_attribute 26, 1
	.eabi_attribute 30, 1
	.eabi_attribute 34, 1
	.eabi_attribute 18, 4
	.file	"naeusb.c"
	.text
.Ltext0:
	.cfi_sections	.debug_frame
	.section	.text.usb_is_enabled,"ax",%progbits
	.align	1
	.global	usb_is_enabled
	.arch armv7-m
	.syntax unified
	.thumb
	.thumb_func
	.fpu softvfp
	.type	usb_is_enabled, %function
usb_is_enabled:
.LFB181:
	.file 1 "naeusb/naeusb.c"
	.loc 1 19 1 view -0
	.cfi_startproc
	@ args = 0, pretend = 0, frame = 0
	@ frame_needed = 0, uses_anonymous_args = 0
	@ link register save eliminated.
	.loc 1 20 5 view .LVU1
	.loc 1 20 12 is_stmt 0 view .LVU2
	ldr	r3, .L2
	ldrb	r0, [r3]	@ zero_extendqisi2
	.loc 1 21 1 view .LVU3
	bx	lr
.L3:
	.align	2
.L2:
	.word	.LANCHOR0
	.cfi_endproc
.LFE181:
	.size	usb_is_enabled, .-usb_is_enabled
	.section	.text.naeusb_add_in_handler,"ax",%progbits
	.align	1
	.global	naeusb_add_in_handler
	.syntax unified
	.thumb
	.thumb_func
	.fpu softvfp
	.type	naeusb_add_in_handler, %function
naeusb_add_in_handler:
.LVL0:
.LFB182:
	.loc 1 24 1 is_stmt 1 view -0
	.cfi_startproc
	@ args = 0, pretend = 0, frame = 0
	@ frame_needed = 0, uses_anonymous_args = 0
	@ link register save eliminated.
	.loc 1 25 5 view .LVU5
	.loc 1 25 32 is_stmt 0 view .LVU6
	ldr	r3, .L7
	ldrb	r3, [r3]	@ zero_extendqisi2
	.loc 1 25 8 view .LVU7
	cmp	r3, #15
	bhi	.L6
	.loc 1 28 5 is_stmt 1 view .LVU8
	.loc 1 28 54 is_stmt 0 view .LVU9
	adds	r1, r3, #1
	ldr	r2, .L7
	strb	r1, [r2]
	.loc 1 28 58 view .LVU10
	ldr	r2, .L7+4
	str	r0, [r2, r3, lsl #2]
	.loc 1 29 5 is_stmt 1 view .LVU11
	.loc 1 29 12 is_stmt 0 view .LVU12
	movs	r0, #1
.LVL1:
	.loc 1 29 12 view .LVU13
	bx	lr
.LVL2:
.L6:
	.loc 1 26 16 view .LVU14
	movs	r0, #0
.LVL3:
	.loc 1 30 1 view .LVU15
	bx	lr
.L8:
	.align	2
.L7:
	.word	.LANCHOR1
	.word	.LANCHOR2
	.cfi_endproc
.LFE182:
	.size	naeusb_add_in_handler, .-naeusb_add_in_handler
	.section	.text.naeusb_add_out_handler,"ax",%progbits
	.align	1
	.global	naeusb_add_out_handler
	.syntax unified
	.thumb
	.thumb_func
	.fpu softvfp
	.type	naeusb_add_out_handler, %function
naeusb_add_out_handler:
.LVL4:
.LFB183:
	.loc 1 33 1 is_stmt 1 view -0
	.cfi_startproc
	@ args = 0, pretend = 0, frame = 0
	@ frame_needed = 0, uses_anonymous_args = 0
	@ link register save eliminated.
	.loc 1 34 5 view .LVU17
	.loc 1 34 33 is_stmt 0 view .LVU18
	ldr	r3, .L12
	ldrb	r3, [r3]	@ zero_extendqisi2
	.loc 1 34 8 view .LVU19
	cmp	r3, #15
	bhi	.L11
	.loc 1 37 5 is_stmt 1 view .LVU20
	.loc 1 37 56 is_stmt 0 view .LVU21
	adds	r1, r3, #1
	ldr	r2, .L12
	strb	r1, [r2]
	.loc 1 37 60 view .LVU22
	ldr	r2, .L12+4
	str	r0, [r2, r3, lsl #2]
	.loc 1 38 5 is_stmt 1 view .LVU23
	.loc 1 38 12 is_stmt 0 view .LVU24
	movs	r0, #1
.LVL5:
	.loc 1 38 12 view .LVU25
	bx	lr
.LVL6:
.L11:
	.loc 1 35 16 view .LVU26
	movs	r0, #0
.LVL7:
	.loc 1 39 1 view .LVU27
	bx	lr
.L13:
	.align	2
.L12:
	.word	.LANCHOR3
	.word	.LANCHOR4
	.cfi_endproc
.LFE183:
	.size	naeusb_add_out_handler, .-naeusb_add_out_handler
	.section	.text.main_suspend_action,"ax",%progbits
	.align	1
	.global	main_suspend_action
	.syntax unified
	.thumb
	.thumb_func
	.fpu softvfp
	.type	main_suspend_action, %function
main_suspend_action:
.LFB184:
	.loc 1 43 1 is_stmt 1 view -0
	.cfi_startproc
	@ args = 0, pretend = 0, frame = 0
	@ frame_needed = 0, uses_anonymous_args = 0
	push	{r3, lr}
.LCFI0:
	.cfi_def_cfa_offset 8
	.cfi_offset 3, -8
	.cfi_offset 14, -4
	.loc 1 44 2 view .LVU29
	.loc 1 44 9 is_stmt 0 view .LVU30
	ldr	r3, .L16
	movs	r2, #0
	strb	r2, [r3]
	.loc 1 45 2 is_stmt 1 view .LVU31
	ldr	r3, .L16+4
	blx	r3
.LVL8:
	.loc 1 46 1 is_stmt 0 view .LVU32
	pop	{r3, pc}
.L17:
	.align	2
.L16:
	.word	.LANCHOR5
	.word	ui_powerdown
	.cfi_endproc
.LFE184:
	.size	main_suspend_action, .-main_suspend_action
	.section	.text.main_resume_action,"ax",%progbits
	.align	1
	.global	main_resume_action
	.syntax unified
	.thumb
	.thumb_func
	.fpu softvfp
	.type	main_resume_action, %function
main_resume_action:
.LFB185:
	.loc 1 49 1 is_stmt 1 view -0
	.cfi_startproc
	@ args = 0, pretend = 0, frame = 0
	@ frame_needed = 0, uses_anonymous_args = 0
	push	{r3, lr}
.LCFI1:
	.cfi_def_cfa_offset 8
	.cfi_offset 3, -8
	.cfi_offset 14, -4
	.loc 1 50 5 view .LVU34
	ldr	r3, .L20
	blx	r3
.LVL9:
	.loc 1 51 1 is_stmt 0 view .LVU35
	pop	{r3, pc}
.L21:
	.align	2
.L20:
	.word	ui_wakeup
	.cfi_endproc
.LFE185:
	.size	main_resume_action, .-main_resume_action
	.section	.text.main_sof_action,"ax",%progbits
	.align	1
	.global	main_sof_action
	.syntax unified
	.thumb
	.thumb_func
	.fpu softvfp
	.type	main_sof_action, %function
main_sof_action:
.LFB186:
	.loc 1 54 1 is_stmt 1 view -0
	.cfi_startproc
	@ args = 0, pretend = 0, frame = 0
	@ frame_needed = 0, uses_anonymous_args = 0
	push	{r3, lr}
.LCFI2:
	.cfi_def_cfa_offset 8
	.cfi_offset 3, -8
	.cfi_offset 14, -4
	.loc 1 55 5 view .LVU37
	.loc 1 55 9 is_stmt 0 view .LVU38
	ldr	r3, .L26
	ldrb	r3, [r3]	@ zero_extendqisi2
	.loc 1 55 8 view .LVU39
	cbnz	r3, .L25
.L22:
	.loc 1 58 1 view .LVU40
	pop	{r3, pc}
.L25:
	.loc 1 57 5 is_stmt 1 view .LVU41
	ldr	r3, .L26+4
	blx	r3
.LVL10:
	ldr	r3, .L26+8
	blx	r3
.LVL11:
	b	.L22
.L27:
	.align	2
.L26:
	.word	.LANCHOR0
	.word	udd_get_frame_number
	.word	ui_process
	.cfi_endproc
.LFE186:
	.size	main_sof_action, .-main_sof_action
	.section	.text.main_vendor_enable,"ax",%progbits
	.align	1
	.global	main_vendor_enable
	.syntax unified
	.thumb
	.thumb_func
	.fpu softvfp
	.type	main_vendor_enable, %function
main_vendor_enable:
.LFB187:
	.loc 1 65 1 view -0
	.cfi_startproc
	@ args = 0, pretend = 0, frame = 0
	@ frame_needed = 0, uses_anonymous_args = 0
	push	{r4, lr}
.LCFI3:
	.cfi_def_cfa_offset 8
	.cfi_offset 4, -8
	.cfi_offset 14, -4
	.loc 1 66 5 view .LVU43
	.loc 1 66 12 is_stmt 0 view .LVU44
	movs	r4, #1
	ldr	r3, .L30
	strb	r4, [r3]
	.loc 1 67 5 is_stmt 1 view .LVU45
	.loc 1 67 26 is_stmt 0 view .LVU46
	ldr	r3, .L30+4
	strb	r4, [r3]
	.loc 1 71 5 is_stmt 1 view .LVU47
	ldr	r2, .L30+8
	mov	r1, #1024
	ldr	r0, .L30+12
	ldr	r3, .L30+16
	blx	r3
.LVL12:
	.loc 1 76 5 view .LVU48
	.loc 1 77 1 is_stmt 0 view .LVU49
	mov	r0, r4
	pop	{r4, pc}
.L31:
	.align	2
.L30:
	.word	.LANCHOR5
	.word	.LANCHOR0
	.word	main_vendor_bulk_out_received
	.word	.LANCHOR6
	.word	udi_vendor_bulk_out_run
	.cfi_endproc
.LFE187:
	.size	main_vendor_enable, .-main_vendor_enable
	.section	.text.main_vendor_disable,"ax",%progbits
	.align	1
	.global	main_vendor_disable
	.syntax unified
	.thumb
	.thumb_func
	.fpu softvfp
	.type	main_vendor_disable, %function
main_vendor_disable:
.LFB188:
	.loc 1 80 1 is_stmt 1 view -0
	.cfi_startproc
	@ args = 0, pretend = 0, frame = 0
	@ frame_needed = 0, uses_anonymous_args = 0
	@ link register save eliminated.
	.loc 1 81 5 view .LVU51
	.loc 1 81 26 is_stmt 0 view .LVU52
	ldr	r3, .L33
	movs	r2, #0
	strb	r2, [r3]
	.loc 1 82 1 view .LVU53
	bx	lr
.L34:
	.align	2
.L33:
	.word	.LANCHOR0
	.cfi_endproc
.LFE188:
	.size	main_vendor_disable, .-main_vendor_disable
	.section	.text.main_setup_out_received,"ax",%progbits
	.align	1
	.global	main_setup_out_received
	.syntax unified
	.thumb
	.thumb_func
	.fpu softvfp
	.type	main_setup_out_received, %function
main_setup_out_received:
.LFB189:
	.loc 1 85 1 is_stmt 1 view -0
	.cfi_startproc
	@ args = 0, pretend = 0, frame = 0
	@ frame_needed = 0, uses_anonymous_args = 0
	push	{r4, lr}
.LCFI4:
	.cfi_def_cfa_offset 8
	.cfi_offset 4, -8
	.cfi_offset 14, -4
	.loc 1 86 5 view .LVU55
.LVL13:
	.loc 1 87 5 view .LVU56
	.loc 1 87 27 is_stmt 0 view .LVU57
	ldr	r3, .L42
	ldr	r2, .L42+4
	str	r2, [r3, #8]
	.loc 1 88 5 is_stmt 1 view .LVU58
	.loc 1 88 34 is_stmt 0 view .LVU59
	ldrh	r2, [r3, #6]
	cmp	r2, #64
	it	cs
	movcs	r2, #64
	.loc 1 88 32 view .LVU60
	strh	r2, [r3, #12]	@ movhi
	.loc 1 90 5 is_stmt 1 view .LVU61
.LBB2:
	.loc 1 90 10 view .LVU62
	.loc 1 90 18 is_stmt 0 view .LVU63
	ldr	r3, .L42+8
	ldrb	r4, [r3]	@ zero_extendqisi2
.LVL14:
	.loc 1 90 5 view .LVU64
	b	.L36
.LVL15:
.L41:
	.loc 1 90 54 is_stmt 1 discriminator 2 view .LVU65
	.loc 1 90 55 is_stmt 0 discriminator 2 view .LVU66
	subs	r4, r4, #1
.LVL16:
	.loc 1 90 55 discriminator 2 view .LVU67
	uxtb	r4, r4
.LVL17:
.L36:
	.loc 1 90 47 is_stmt 1 discriminator 1 view .LVU68
	.loc 1 90 5 is_stmt 0 discriminator 1 view .LVU69
	cbz	r4, .L40
	.loc 1 91 9 is_stmt 1 view .LVU70
	.loc 1 91 55 is_stmt 0 view .LVU71
	subs	r3, r4, #1
	.loc 1 91 53 view .LVU72
	ldr	r2, .L42+12
	ldr	r3, [r2, r3, lsl #2]
	.loc 1 91 26 view .LVU73
	blx	r3
.LVL18:
	.loc 1 92 9 is_stmt 1 view .LVU74
	.loc 1 92 12 is_stmt 0 view .LVU75
	mov	r3, r0
	cmp	r0, #0
	beq	.L41
	b	.L37
.LVL19:
.L40:
	.loc 1 92 12 view .LVU76
.LBE2:
	.loc 1 97 12 view .LVU77
	movs	r3, #0
.L37:
	.loc 1 99 1 view .LVU78
	mov	r0, r3
	pop	{r4, pc}
.LVL20:
.L43:
	.loc 1 99 1 view .LVU79
	.align	2
.L42:
	.word	udd_g_ctrlreq
	.word	.LANCHOR7
	.word	.LANCHOR3
	.word	.LANCHOR4
	.cfi_endproc
.LFE189:
	.size	main_setup_out_received, .-main_setup_out_received
	.section	.text.main_setup_in_received,"ax",%progbits
	.align	1
	.global	main_setup_in_received
	.syntax unified
	.thumb
	.thumb_func
	.fpu softvfp
	.type	main_setup_in_received, %function
main_setup_in_received:
.LFB190:
	.loc 1 102 1 is_stmt 1 view -0
	.cfi_startproc
	@ args = 0, pretend = 0, frame = 0
	@ frame_needed = 0, uses_anonymous_args = 0
	push	{r4, lr}
.LCFI5:
	.cfi_def_cfa_offset 8
	.cfi_offset 4, -8
	.cfi_offset 14, -4
	.loc 1 103 5 view .LVU81
.LVL21:
	.loc 1 105 5 view .LVU82
.LBB3:
	.loc 1 105 10 view .LVU83
	.loc 1 105 18 is_stmt 0 view .LVU84
	ldr	r3, .L51
	ldrb	r4, [r3]	@ zero_extendqisi2
.LVL22:
	.loc 1 105 5 view .LVU85
	b	.L45
.LVL23:
.L50:
	.loc 1 105 53 is_stmt 1 discriminator 2 view .LVU86
	.loc 1 105 54 is_stmt 0 discriminator 2 view .LVU87
	subs	r4, r4, #1
.LVL24:
	.loc 1 105 54 discriminator 2 view .LVU88
	uxtb	r4, r4
.LVL25:
.L45:
	.loc 1 105 46 is_stmt 1 discriminator 1 view .LVU89
	.loc 1 105 5 is_stmt 0 discriminator 1 view .LVU90
	cbz	r4, .L49
	.loc 1 106 9 is_stmt 1 view .LVU91
	.loc 1 106 54 is_stmt 0 view .LVU92
	subs	r3, r4, #1
	.loc 1 106 52 view .LVU93
	ldr	r2, .L51+4
	ldr	r3, [r2, r3, lsl #2]
	.loc 1 106 26 view .LVU94
	blx	r3
.LVL26:
	.loc 1 107 9 is_stmt 1 view .LVU95
	.loc 1 107 12 is_stmt 0 view .LVU96
	mov	r3, r0
	cmp	r0, #0
	beq	.L50
	b	.L46
.LVL27:
.L49:
	.loc 1 107 12 view .LVU97
.LBE3:
	.loc 1 112 12 view .LVU98
	movs	r3, #0
.L46:
	.loc 1 114 1 view .LVU99
	mov	r0, r3
	pop	{r4, pc}
.LVL28:
.L52:
	.loc 1 114 1 view .LVU100
	.align	2
.L51:
	.word	.LANCHOR1
	.word	.LANCHOR2
	.cfi_endproc
.LFE190:
	.size	main_setup_in_received, .-main_setup_in_received
	.global	started_read
	.global	main_buf_loopback
	.global	respbuf
	.global	ctrlbuffer
	.section	.bss.active,"aw",%nobits
	.set	.LANCHOR5,. + 0
	.type	active, %object
	.size	active, 1
active:
	.space	1
	.section	.bss.cpu_irq_critical_section_counter,"aw",%nobits
	.align	2
	.type	cpu_irq_critical_section_counter, %object
	.size	cpu_irq_critical_section_counter, 4
cpu_irq_critical_section_counter:
	.space	4
	.section	.bss.cpu_irq_prev_interrupt_state,"aw",%nobits
	.type	cpu_irq_prev_interrupt_state, %object
	.size	cpu_irq_prev_interrupt_state, 1
cpu_irq_prev_interrupt_state:
	.space	1
	.section	.bss.ctrlbuffer,"aw",%nobits
	.align	2
	.set	.LANCHOR7,. + 0
	.type	ctrlbuffer, %object
	.size	ctrlbuffer, 64
ctrlbuffer:
	.space	64
	.section	.bss.main_buf_loopback,"aw",%nobits
	.align	2
	.set	.LANCHOR6,. + 0
	.type	main_buf_loopback, %object
	.size	main_buf_loopback, 1024
main_buf_loopback:
	.space	1024
	.section	.bss.naeusb_in_request_handlers,"aw",%nobits
	.align	2
	.set	.LANCHOR2,. + 0
	.type	naeusb_in_request_handlers, %object
	.size	naeusb_in_request_handlers, 64
naeusb_in_request_handlers:
	.space	64
	.section	.bss.naeusb_num_in_handlers,"aw",%nobits
	.set	.LANCHOR1,. + 0
	.type	naeusb_num_in_handlers, %object
	.size	naeusb_num_in_handlers, 1
naeusb_num_in_handlers:
	.space	1
	.section	.bss.naeusb_num_out_handlers,"aw",%nobits
	.set	.LANCHOR3,. + 0
	.type	naeusb_num_out_handlers, %object
	.size	naeusb_num_out_handlers, 1
naeusb_num_out_handlers:
	.space	1
	.section	.bss.naeusb_out_request_handlers,"aw",%nobits
	.align	2
	.set	.LANCHOR4,. + 0
	.type	naeusb_out_request_handlers, %object
	.size	naeusb_out_request_handlers, 64
naeusb_out_request_handlers:
	.space	64
	.section	.bss.respbuf,"aw",%nobits
	.align	2
	.type	respbuf, %object
	.size	respbuf, 64
respbuf:
	.space	64
	.section	.bss.started_read,"aw",%nobits
	.type	started_read, %object
	.size	started_read, 1
started_read:
	.space	1
	.section	.data.main_b_vendor_enable,"aw"
	.set	.LANCHOR0,. + 0
	.type	main_b_vendor_enable, %object
	.size	main_b_vendor_enable, 1
main_b_vendor_enable:
	.byte	1
	.text
.Letext0:
	.file 2 "c:\\program files (x86)\\gnu arm embedded toolchain\\10 2021.07\\arm-none-eabi\\include\\machine\\_default_types.h"
	.file 3 "c:\\program files (x86)\\gnu arm embedded toolchain\\10 2021.07\\arm-none-eabi\\include\\sys\\_stdint.h"
	.file 4 ".././hal/sam3u1c/inc/interrupt/interrupt_sam_nvic.h"
	.file 5 ".././hal/sam3u1c/inc/compiler.h"
	.file 6 ".././hal/sam3u1c/inc/usb_protocol.h"
	.file 7 ".././hal/sam3u1c/inc/udd.h"
	.file 8 "naeusb/naeusb.h"
	.file 9 ".././hal/sam3u1c/inc/udi_vendor.h"
	.file 10 "./ui.h"