(dp0
S'part'
p1
S'6slx25ftg256'
p2
sS'values'
p3
(dp4
I0
(lp5
(I89
I2048
tp6
a(I90
I0
tp7
a(I160
I33
tp8
a(I161
I23921
tp9
a(I169
I7
tp10
a(I170
I10848
tp11
asI1
(lp12
(I89
I2056
tp13
a(I90
I0
tp14
a(I160
I34
tp15
a(I161
I556
tp16
a(I169
I1
tp17
a(I170
I38106
tp18
asI2
(lp19
(I89
I2049
tp20
a(I90
I0
tp21
a(I160
I9
tp22
a(I161
I27850
tp23
a(I169
I23
tp24
a(I170
I55703
tp25
asI3
(lp26
(I90
I0
tp27
a(I160
I10
tp28
a(I161
I13207
tp29
a(I169
I17
tp30
a(I170
I26413
tp31
asI4
(lp32
(I89
I2048
tp33
a(I90
I32768
tp34
a(I160
I40
tp35
a(I161
I45210
tp36
a(I169
I20
tp37
a(I170
I61878
tp38
asI5
(lp39
(I89
I2056
tp40
a(I90
I32768
tp41
a(I160
I43
tp42
a(I161
I61383
tp43
a(I169
I18
tp44
a(I170
I20236
tp45
asI6
(lp46
(I89
I2049
tp47
a(I90
I32768
tp48
a(I160
I0
tp49
a(I161
I33057
tp50
a(I169
I4
tp51
a(I170
I577
tp52
asI7
(lp53
(I90
I32768
tp54
a(I160
I3
tp55
a(I161
I56956
tp56
a(I169
I2
tp57
a(I170
I48379
tp58
asI8
(lp59
(I89
I2048
tp60
a(I90
I4096
tp61
a(I160
I56
tp62
a(I161
I22268
tp63
a(I169
I53
tp64
a(I170
I15738
tp65
asI9
(lp66
(I89
I2056
tp67
a(I90
I4096
tp68
a(I160
I59
tp69
a(I161
I2465
tp70
a(I169
I51
tp71
a(I170
I33728
tp72
asI10
(lp73
(I89
I2049
tp74
a(I90
I4096
tp75
a(I160
I16
tp76
a(I161
I26439
tp77
a(I169
I37
tp78
a(I170
I52877
tp79
asI11
(lp80
(I90
I4096
tp81
a(I160
I19
tp82
a(I161
I14362
tp83
a(I169
I35
tp84
a(I170
I28727
tp85
asI12
(lp86
(I89
I2048
tp87
a(I160
I49
tp88
a(I161
I47895
tp89
a(I169
I38
tp90
a(I170
I59052
tp91
asI13
(lp92
(I89
I2056
tp93
a(I160
I50
tp94
a(I161
I58442
tp95
a(I169
I32
tp96
a(I170
I22550
tp97
asI14
(lp98
(I89
I2049
tp99
a(I160
I25
tp100
a(I161
I35500
tp101
a(I169
I54
tp102
a(I170
I5467
tp103
asI15
(lp104
(I22
I12449
tp105
a(I23
I3
tp106
a(I24
I8192
tp107
a(I25
I8192
tp108
a(I26
I8192
tp109
a(I27
I8192
tp110
a(I28
I12290
tp111
a(I29
I11
tp112
a(I30
I28739
tp113
a(I31
I12449
tp114
a(I32
I13
tp115
a(I33
I8192
tp116
a(I34
I8192
tp117
a(I35
I8192
tp118
a(I36
I8192
tp119
a(I37
I8192
tp120
a(I38
I8192
tp121
a(I39
I8192
tp122
a(I40
I8192
tp123
a(I41
I8192
tp124
a(I42
I8192
tp125
a(I43
I8192
tp126
a(I44
I8192
tp127
a(I45
I8192
tp128
a(I46
I8192
tp129
a(I47
I8192
tp130
a(I48
I8192
tp131
asI16
(lp132
(I89
I2048
tp133
a(I90
I2048
tp134
a(I160
I13
tp135
a(I161
I37111
tp136
a(I169
I30
tp137
a(I170
I8685
tp138
asI17
(lp139
(I89
I2056
tp140
a(I90
I2048
tp141
a(I160
I14
tp142
a(I161
I53162
tp143
a(I169
I24
tp144
a(I170
I40791
tp145
asI18
(lp146
(I89
I2049
tp147
a(I90
I2048
tp148
a(I160
I37
tp149
a(I161
I41292
tp150
a(I169
I14
tp151
a(I170
I53786
tp152
asI19
(lp153
(I90
I2048
tp154
a(I160
I38
tp155
a(I161
I65041
tp156
a(I169
I8
tp157
a(I170
I27808
tp158
asI20
(lp159
(I89
I2048
tp160
a(I90
I34816
tp161
a(I160
I4
tp162
a(I161
I32028
tp163
a(I169
I13
tp164
a(I170
I64059
tp165
asI21
(lp166
(I89
I2056
tp167
a(I90
I34816
tp168
a(I160
I7
tp169
a(I161
I8769
tp170
a(I169
I11
tp171
a(I170
I17537
tp172
asI22
(lp173
(I89
I2049
tp174
a(I90
I34816
tp175
a(I160
I44
tp176
a(I161
I19623
tp177
a(I169
I29
tp178
a(I170
I2508
tp179
asI23
(lp180
(I90
I34816
tp181
a(I160
I47
tp182
a(I161
I5114
tp183
a(I169
I27
tp184
a(I170
I46966
tp185
asI24
(lp186
(I89
I2048
tp187
a(I90
I6144
tp188
a(I160
I20
tp189
a(I161
I39802
tp190
a(I169
I44
tp191
a(I170
I14071
tp192
asI25
(lp193
(I89
I2056
tp194
a(I90
I6144
tp195
a(I160
I23
tp196
a(I161
I50215
tp197
a(I169
I42
tp198
a(I170
I34893
tp199
asI26
(lp200
(I89
I2049
tp201
a(I90
I6144
tp202
a(I160
I60
tp203
a(I161
I43713
tp204
a(I169
I60
tp205
a(I170
I50432
tp206
asI27
(lp207
(I90
I6144
tp208
a(I160
I63
tp209
a(I161
I62876
tp210
a(I169
I58
tp211
a(I170
I31674
tp212
asI28
(lp213
(I89
I2048
tp214
a(I90
I38912
tp215
a(I160
I29
tp216
a(I161
I30353
tp217
a(I169
I63
tp218
a(I170
I60705
tp219
asI29
(lp220
(I89
I2056
tp221
a(I90
I38912
tp222
a(I160
I30
tp223
a(I161
I10700
tp224
a(I169
I57
tp225
a(I170
I21403
tp226
asI30
(lp227
(I89
I2049
tp228
a(I90
I38912
tp229
a(I160
I53
tp230
a(I161
I18218
tp231
a(I169
I47
tp232
a(I170
I7894
tp233
asI31
(lp234
(I90
I38912
tp235
a(I160
I54
tp236
a(I161
I6263
tp237
a(I169
I41
tp238
a(I170
I41068
tp239
asI32
(lp240
(I89
I2048
tp241
a(I90
I256
tp242
a(I160
I20
tp243
a(I161
I43169
tp244
a(I169
I44
tp245
a(I170
I20801
tp246
asI33
(lp247
(I89
I2056
tp248
a(I90
I256
tp249
a(I160
I23
tp250
a(I161
I63484
tp251
a(I169
I42
tp252
a(I170
I61435
tp253
asI34
(lp254
(I89
I2049
tp255
a(I90
I256
tp256
a(I160
I60
tp257
a(I161
I39194
tp258
a(I169
I60
tp259
a(I170
I41654
tp260
asI35
(lp261
(I90
I256
tp262
a(I160
I63
tp263
a(I161
I50759
tp264
a(I169
I58
tp265
a(I170
I7180
tp266
asI36
(lp267
(I89
I2048
tp268
a(I90
I33024
tp269
a(I160
I29
tp270
a(I161
I17738
tp271
a(I169
I63
tp272
a(I170
I35479
tp273
asI37
(lp274
(I89
I2056
tp275
a(I90
I33024
tp276
a(I160
I30
tp277
a(I161
I6679
tp278
a(I169
I57
tp279
a(I170
I13357
tp280
asI38
(lp281
(I89
I2049
tp282
a(I90
I33024
tp283
a(I160
I53
tp284
a(I161
I29937
tp285
a(I169
I47
tp286
a(I170
I31072
tp287
asI39
(lp288
(I90
I33024
tp289
a(I160
I54
tp290
a(I161
I11180
tp291
a(I169
I41
tp292
a(I170
I51162
tp293
asI40
(lp294
(I89
I2048
tp295
a(I90
I4352
tp296
a(I160
I13
tp297
a(I161
I41772
tp298
a(I169
I30
tp299
a(I170
I18011
tp300
asI41
(lp301
(I89
I2056
tp302
a(I90
I4352
tp303
a(I160
I14
tp304
a(I161
I64625
tp305
a(I169
I24
tp306
a(I170
I63713
tp307
asI42
(lp308
(I89
I2049
tp309
a(I90
I4352
tp310
a(I160
I37
tp311
a(I161
I37527
tp312
a(I169
I14
tp313
a(I170
I46508
tp314
asI43
(lp315
(I90
I4352
tp316
a(I160
I38
tp317
a(I161
I52682
tp318
a(I169
I8
tp319
a(I170
I2838
tp320
asI44
(lp321
(I89
I2048
tp322
a(I90
I37120
tp323
a(I160
I4
tp324
a(I161
I20167
tp325
a(I169
I13
tp326
a(I170
I40333
tp327
asI45
(lp328
(I89
I2056
tp329
a(I90
I37120
tp330
a(I160
I7
tp331
a(I161
I4506
tp332
a(I169
I11
tp333
a(I170
I9015
tp334
asI46
(lp335
(I89
I2049
tp336
a(I90
I37120
tp337
a(I160
I44
tp338
a(I161
I32636
tp339
a(I169
I29
tp340
a(I170
I28282
tp341
asI47
(lp342
(I90
I37120
tp343
a(I160
I47
tp344
a(I161
I8225
tp345
a(I169
I27
tp346
a(I170
I53440
tp347
asI48
(lp348
(I89
I2048
tp349
a(I90
I2304
tp350
a(I160
I56
tp351
a(I161
I25895
tp352
a(I169
I53
tp353
a(I170
I23244
tp354
asI49
(lp355
(I89
I2056
tp356
a(I90
I2304
tp357
a(I160
I59
tp358
a(I161
I14970
tp359
a(I169
I51
tp360
a(I170
I58486
tp361
asI50
(lp362
(I89
I2049
tp363
a(I90
I2304
tp364
a(I160
I16
tp365
a(I161
I21660
tp366
a(I169
I37
tp367
a(I170
I43323
tp368
asI51
(lp369
(I90
I2304
tp370
a(I160
I19
tp371
a(I161
I3009
tp372
a(I169
I35
tp373
a(I170
I6017
tp374
asI52
(lp375
(I89
I2048
tp376
a(I90
I35072
tp377
a(I160
I49
tp378
a(I161
I35020
tp379
a(I169
I38
tp380
a(I170
I33050
tp381
asI53
(lp382
(I89
I2056
tp383
a(I90
I35072
tp384
a(I160
I50
tp385
a(I161
I55185
tp386
a(I169
I32
tp387
a(I170
I16288
tp388
asI54
(lp389
(I89
I2049
tp390
a(I90
I35072
tp391
a(I160
I25
tp392
a(I161
I47479
tp393
a(I169
I54
tp394
a(I170
I29421
tp395
asI55
(lp396
(I90
I35072
tp397
a(I161
I58922
tp398
a(I170
I52311
tp399
asI56
(lp400
(I89
I2048
tp401
a(I90
I6400
tp402
a(I160
I33
tp403
a(I161
I28330
tp404
a(I169
I7
tp405
a(I170
I19926
tp406
asI57
(lp407
(I89
I2056
tp408
a(I90
I6400
tp409
a(I160
I34
tp410
a(I161
I12791
tp411
a(I169
I1
tp412
a(I170
I62316
tp413
asI58
(lp414
(I89
I2049
tp415
a(I90
I6400
tp416
a(I160
I9
tp417
a(I161
I24337
tp418
a(I169
I23
tp419
a(I170
I48673
tp420
asI59
(lp421
(I90
I6400
tp422
a(I160
I10
tp423
a(I161
I76
tp424
a(I169
I17
tp425
a(I170
I155
tp426
asI60
(lp427
(I89
I2048
tp428
a(I90
I39168
tp429
a(I160
I40
tp430
a(I161
I33601
tp431
a(I169
I20
tp432
a(I170
I38400
tp433
asI61
(lp434
(I89
I2056
tp435
a(I90
I39168
tp436
a(I160
I43
tp437
a(I161
I56348
tp438
a(I169
I18
tp439
a(I170
I10426
tp440
asI62
(lp441
(I89
I2049
tp442
a(I90
I39168
tp443
a(I160
I0
tp444
a(I161
I45818
tp445
a(I169
I4
tp446
a(I170
I26103
tp447
asI63
(lp448
(I90
I39168
tp449
a(I160
I3
tp450
a(I161
I60839
tp451
a(I169
I2
tp452
a(I170
I56141
tp453
asI64
(lp454
(I89
I2048
tp455
a(I90
I128
tp456
a(I160
I59
tp457
a(I161
I42905
tp458
a(I169
I50
tp459
a(I170
I57264
tp460
asI65
(lp461
(I89
I2056
tp462
a(I90
I128
tp463
a(I160
I56
tp464
a(I161
I63684
tp465
a(I169
I52
tp466
a(I170
I24842
tp467
asI66
(lp468
(I89
I2049
tp469
a(I90
I128
tp470
a(I160
I19
tp471
a(I161
I38434
tp472
a(I169
I34
tp473
a(I170
I11335
tp474
asI67
(lp475
(I90
I128
tp476
a(I160
I16
tp477
a(I161
I51583
tp478
a(I169
I36
tp479
a(I170
I37629
tp480
asI68
(lp481
(I89
I2048
tp482
a(I90
I32896
tp483
a(I160
I50
tp484
a(I161
I19058
tp485
a(I169
I33
tp486
a(I170
I1126
tp487
asI69
(lp488
(I89
I2056
tp489
a(I90
I32896
tp490
a(I160
I49
tp491
a(I161
I5423
tp492
a(I169
I39
tp493
a(I170
I47836
tp494
asI70
(lp495
(I89
I2049
tp496
a(I90
I32896
tp497
a(I161
I31689
tp498
a(I169
I49
tp499
a(I170
I63377
tp500
asI71
(lp501
(I90
I32896
tp502
a(I160
I25
tp503
a(I161
I9364
tp504
a(I169
I55
tp505
a(I170
I18731
tp506
asI72
(lp507
(I89
I2048
tp508
a(I90
I4224
tp509
a(I160
I34
tp510
a(I161
I44052
tp511
a(I169
I0
tp512
a(I170
I51370
tp513
asI73
(lp514
(I89
I2056
tp515
a(I90
I4224
tp516
a(I160
I33
tp517
a(I161
I62281
tp518
a(I169
I6
tp519
a(I170
I30224
tp520
asI74
(lp521
(I89
I2049
tp522
a(I90
I4224
tp523
a(I160
I10
tp524
a(I161
I40367
tp525
a(I169
I16
tp526
a(I170
I15197
tp527
asI75
(lp528
(I90
I4224
tp529
a(I160
I9
tp530
a(I161
I49906
tp531
a(I169
I22
tp532
a(I170
I34279
tp533
asI76
(lp534
(I89
I2048
tp535
a(I90
I36992
tp536
a(I160
I43
tp537
a(I161
I16895
tp538
a(I169
I19
tp539
a(I170
I4988
tp540
asI77
(lp541
(I89
I2056
tp542
a(I90
I36992
tp543
a(I160
I40
tp544
a(I161
I7842
tp545
a(I169
I21
tp546
a(I170
I44486
tp547
asI78
(lp548
(I89
I2049
tp549
a(I90
I36992
tp550
a(I160
I3
tp551
a(I161
I28740
tp552
a(I169
I3
tp553
a(I170
I57483
tp554
asI79
(lp555
(I90
I36992
tp556
a(I160
I0
tp557
a(I161
I12057
tp558
a(I169
I5
tp559
a(I170
I24113
tp560
asI80
(lp561
(I89
I2048
tp562
a(I90
I2176
tp563
a(I160
I23
tp564
a(I161
I27167
tp565
a(I169
I43
tp566
a(I170
I54333
tp567
asI81
(lp568
(I89
I2056
tp569
a(I90
I2176
tp570
a(I160
I20
tp571
a(I161
I13634
tp572
a(I169
I45
tp573
a(I170
I27271
tp574
asI82
(lp575
(I89
I2049
tp576
a(I90
I2176
tp577
a(I160
I63
tp578
a(I161
I23460
tp579
a(I169
I59
tp580
a(I170
I10186
tp581
asI83
(lp582
(I90
I2176
tp583
a(I160
I60
tp584
a(I161
I1273
tp585
a(I169
I61
tp586
a(I170
I39280
tp587
asI84
(lp588
(I89
I2048
tp589
a(I90
I34944
tp590
a(I160
I30
tp591
a(I161
I34804
tp592
a(I169
I56
tp593
a(I170
I4075
tp594
asI85
(lp595
(I89
I2056
tp596
a(I90
I34944
tp597
a(I160
I29
tp598
a(I161
I55465
tp599
a(I169
I62
tp600
a(I170
I45393
tp601
asI86
(lp602
(I89
I2049
tp603
a(I90
I34944
tp604
a(I160
I54
tp605
a(I161
I46671
tp606
a(I169
I40
tp607
a(I170
I64540
tp608
asI87
(lp609
(I90
I34944
tp610
a(I160
I53
tp611
a(I161
I59666
tp612
a(I169
I46
tp613
a(I170
I17062
tp614
asI88
(lp615
(I89
I2048
tp616
a(I90
I6272
tp617
a(I160
I14
tp618
a(I161
I24978
tp619
a(I169
I25
tp620
a(I170
I49959
tp621
asI89
(lp622
(I89
I2056
tp623
a(I90
I6272
tp624
a(I160
I13
tp625
a(I161
I16079
tp626
a(I169
I31
tp627
a(I170
I32157
tp628
asI90
(lp629
(I89
I2049
tp630
a(I90
I6272
tp631
a(I160
I38
tp632
a(I161
I20521
tp633
a(I169
I9
tp634
a(I170
I12496
tp635
asI91
(lp636
(I90
I6272
tp637
a(I160
I37
tp638
a(I161
I3956
tp639
a(I169
I15
tp640
a(I170
I36458
tp641
asI92
(lp642
(I89
I2048
tp643
a(I90
I39040
tp644
a(I160
I7
tp645
a(I161
I35961
tp646
a(I169
I10
tp647
a(I170
I6385
tp648
asI93
(lp649
(I89
I2056
tp650
a(I90
I39040
tp651
a(I160
I4
tp652
a(I161
I54052
tp653
a(I169
I12
tp654
a(I170
I42571
tp655
asI94
(lp656
(I89
I2049
tp657
a(I90
I39040
tp658
a(I160
I47
tp659
a(I161
I48578
tp660
a(I169
I26
tp661
a(I170
I60166
tp662
asI95
(lp663
(I90
I39040
tp664
a(I160
I44
tp665
a(I161
I58015
tp666
a(I169
I28
tp667
a(I170
I21948
tp668
asI96
(lp669
(I89
I2048
tp670
a(I90
I384
tp671
a(I160
I14
tp672
a(I161
I21065
tp673
a(I169
I25
tp674
a(I170
I42129
tp675
asI97
(lp676
(I89
I2056
tp677
a(I90
I384
tp678
a(I160
I13
tp679
a(I161
I3348
tp680
a(I169
I31
tp681
a(I170
I6699
tp682
asI98
(lp683
(I89
I2049
tp684
a(I90
I384
tp685
a(I160
I38
tp686
a(I161
I25586
tp687
a(I169
I9
tp688
a(I170
I22374
tp689
asI99
(lp690
(I90
I384
tp691
a(I160
I37
tp692
a(I161
I15535
tp693
a(I169
I15
tp694
a(I170
I59868
tp695
asI100
(lp696
(I89
I2048
tp697
a(I90
I33152
tp698
a(I160
I7
tp699
a(I161
I49058
tp700
a(I169
I10
tp701
a(I170
I32583
tp702
asI101
(lp703
(I89
I2056
tp704
a(I90
I33152
tp705
a(I160
I4
tp706
a(I161
I57599
tp707
a(I169
I12
tp708
a(I170
I49661
tp709
asI102
(lp710
(I89
I2049
tp711
a(I90
I33152
tp712
a(I160
I47
tp713
a(I161
I36377
tp714
a(I169
I26
tp715
a(I170
I36016
tp716
asI103
(lp717
(I90
I33152
tp718
a(I160
I44
tp719
a(I161
I53572
tp720
a(I169
I28
tp721
a(I170
I12810
tp722
asI104
(lp723
(I89
I2048
tp724
a(I90
I4480
tp725
a(I160
I23
tp726
a(I161
I22980
tp727
a(I169
I43
tp728
a(I170
I45963
tp729
asI105
(lp730
(I89
I2056
tp731
a(I90
I4480
tp732
a(I160
I20
tp733
a(I161
I1689
tp734
a(I169
I45
tp735
a(I170
I3377
tp736
asI106
(lp737
(I89
I2049
tp738
a(I90
I4480
tp739
a(I160
I63
tp740
a(I161
I26751
tp741
a(I169
I59
tp742
a(I170
I16508
tp743
asI107
(lp744
(I90
I4480
tp745
a(I160
I60
tp746
a(I161
I14114
tp747
a(I169
I61
tp748
a(I170
I65222
tp749
asI108
(lp750
(I89
I2048
tp751
a(I90
I37248
tp752
a(I160
I30
tp753
a(I161
I46127
tp754
a(I169
I56
tp755
a(I170
I26717
tp756
asI109
(lp757
(I89
I2056
tp758
a(I90
I37248
tp759
a(I160
I29
tp760
a(I161
I60274
tp761
a(I169
I62
tp762
a(I170
I55015
tp763
asI110
(lp764
(I89
I2049
tp765
a(I90
I37248
tp766
a(I160
I54
tp767
a(I161
I34196
tp768
a(I169
I40
tp769
a(I170
I39850
tp770
asI111
(lp771
(I90
I37248
tp772
a(I160
I53
tp773
a(I161
I56009
tp774
a(I169
I46
tp775
a(I170
I9488
tp776
asI112
(lp777
(I89
I2048
tp778
a(I90
I2432
tp779
a(I160
I34
tp780
a(I161
I40911
tp781
a(I169
I0
tp782
a(I170
I44828
tp783
asI113
(lp784
(I89
I2056
tp785
a(I90
I2432
tp786
a(I160
I33
tp787
a(I161
I49298
tp788
a(I169
I6
tp789
a(I170
I4518
tp790
asI114
(lp791
(I89
I2049
tp792
a(I90
I2432
tp793
a(I160
I10
tp794
a(I161
I44660
tp795
a(I169
I16
tp796
a(I170
I23787
tp797
asI115
(lp798
(I90
I2432
tp799
a(I160
I9
tp800
a(I161
I61737
tp801
a(I169
I22
tp802
a(I170
I57937
tp803
asI116
(lp804
(I89
I2048
tp805
a(I90
I35200
tp806
a(I160
I43
tp807
a(I161
I29220
tp808
a(I169
I19
tp809
a(I170
I29898
tp810
asI117
(lp811
(I89
I2056
tp812
a(I90
I35200
tp813
a(I160
I40
tp814
a(I161
I11641
tp815
a(I169
I21
tp816
a(I170
I51824
tp817
asI118
(lp818
(I89
I2049
tp819
a(I90
I35200
tp820
a(I160
I3
tp821
a(I161
I17311
tp822
a(I169
I3
tp823
a(I170
I34621
tp824
asI119
(lp825
(I90
I35200
tp826
a(I160
I0
tp827
a(I161
I7362
tp828
a(I169
I5
tp829
a(I170
I14727
tp830
asI120
(lp831
(I89
I2048
tp832
a(I90
I6528
tp833
a(I160
I59
tp834
a(I161
I37954
tp835
a(I169
I50
tp836
a(I170
I47110
tp837
asI121
(lp838
(I89
I2056
tp839
a(I90
I6528
tp840
a(I160
I56
tp841
a(I161
I51999
tp842
a(I169
I52
tp843
a(I170
I1724
tp844
asI122
(lp845
(I89
I2049
tp846
a(I90
I6528
tp847
a(I160
I19
tp848
a(I161
I42489
tp849
a(I169
I34
tp850
a(I170
I19441
tp851
asI123
(lp852
(I90
I6528
tp853
a(I160
I16
tp854
a(I161
I64164
tp855
a(I169
I36
tp856
a(I170
I62795
tp857
asI124
(lp858
(I89
I2048
tp859
a(I90
I39296
tp860
a(I160
I50
tp861
a(I161
I31145
tp862
a(I169
I33
tp863
a(I170
I25552
tp864
asI125
(lp865
(I89
I2056
tp866
a(I90
I39296
tp867
a(I160
I49
tp868
a(I161
I9972
tp869
a(I169
I39
tp870
a(I170
I56682
tp871
asI126
(lp872
(I89
I2049
tp873
a(I90
I39296
tp874
a(I161
I18450
tp875
a(I169
I49
tp876
a(I170
I36903
tp877
asI127
(lp878
(I90
I39296
tp879
a(I160
I25
tp880
a(I161
I5967
tp881
a(I169
I55
tp882
a(I170
I11933
tp883
asI-1
(lp884
(I89
I2120
tp885
a(I90
I0
tp886
a(I160
I56
tp887
a(I161
I63684
tp888
a(I169
I52
tp889
a(I170
I24842
tp890
asI-127
(lp891
(I89
I2121
tp892
a(I90
I39296
tp893
a(I160
I3
tp894
a(I161
I60839
tp895
a(I169
I2
tp896
a(I170
I56141
tp897
asI-126
(lp898
(I89
I2113
tp899
a(I90
I39296
tp900
a(I160
I0
tp901
a(I161
I45818
tp902
a(I169
I4
tp903
a(I170
I26103
tp904
asI-125
(lp905
(I89
I2120
tp906
a(I90
I39296
tp907
a(I160
I43
tp908
a(I161
I56348
tp909
a(I169
I18
tp910
a(I170
I10426
tp911
asI-124
(lp912
(I89
I2112
tp913
a(I90
I39296
tp914
a(I160
I40
tp915
a(I161
I33601
tp916
a(I169
I20
tp917
a(I170
I38400
tp918
asI-123
(lp919
(I89
I2121
tp920
a(I90
I6528
tp921
a(I160
I10
tp922
a(I161
I76
tp923
a(I169
I17
tp924
a(I170
I155
tp925
asI-122
(lp926
(I89
I2113
tp927
a(I90
I6528
tp928
a(I160
I9
tp929
a(I161
I24337
tp930
a(I169
I23
tp931
a(I170
I48673
tp932
asI-121
(lp933
(I89
I2120
tp934
a(I90
I6528
tp935
a(I160
I34
tp936
a(I161
I12791
tp937
a(I169
I1
tp938
a(I170
I62316
tp939
asI-120
(lp940
(I89
I2112
tp941
a(I90
I6528
tp942
a(I160
I33
tp943
a(I161
I28330
tp944
a(I169
I7
tp945
a(I170
I19926
tp946
asI-119
(lp947
(I89
I2121
tp948
a(I90
I35200
tp949
a(I161
I58922
tp950
a(I170
I52311
tp951
asI-118
(lp952
(I89
I2113
tp953
a(I90
I35200
tp954
a(I160
I25
tp955
a(I161
I47479
tp956
a(I169
I54
tp957
a(I170
I29421
tp958
asI-117
(lp959
(I89
I2120
tp960
a(I90
I35200
tp961
a(I160
I50
tp962
a(I161
I55185
tp963
a(I169
I32
tp964
a(I170
I16288
tp965
asI-116
(lp966
(I89
I2112
tp967
a(I90
I35200
tp968
a(I160
I49
tp969
a(I161
I35020
tp970
a(I169
I38
tp971
a(I170
I33050
tp972
asI-115
(lp973
(I89
I2121
tp974
a(I90
I2432
tp975
a(I160
I19
tp976
a(I161
I3009
tp977
a(I169
I35
tp978
a(I170
I6017
tp979
asI-114
(lp980
(I89
I2113
tp981
a(I90
I2432
tp982
a(I160
I16
tp983
a(I161
I21660
tp984
a(I169
I37
tp985
a(I170
I43323
tp986
asI-113
(lp987
(I89
I2120
tp988
a(I90
I2432
tp989
a(I160
I59
tp990
a(I161
I14970
tp991
a(I169
I51
tp992
a(I170
I58486
tp993
asI-112
(lp994
(I89
I2112
tp995
a(I90
I2432
tp996
a(I160
I56
tp997
a(I161
I25895
tp998
a(I169
I53
tp999
a(I170
I23244
tp1000
asI-111
(lp1001
(I89
I2121
tp1002
a(I90
I37248
tp1003
a(I160
I47
tp1004
a(I161
I8225
tp1005
a(I169
I27
tp1006
a(I170
I53440
tp1007
asI-110
(lp1008
(I89
I2113
tp1009
a(I90
I37248
tp1010
a(I160
I44
tp1011
a(I161
I32636
tp1012
a(I169
I29
tp1013
a(I170
I28282
tp1014
asI-109
(lp1015
(I89
I2120
tp1016
a(I90
I37248
tp1017
a(I160
I7
tp1018
a(I161
I4506
tp1019
a(I169
I11
tp1020
a(I170
I9015
tp1021
asI-108
(lp1022
(I89
I2112
tp1023
a(I90
I37248
tp1024
a(I160
I4
tp1025
a(I161
I20167
tp1026
a(I169
I13
tp1027
a(I170
I40333
tp1028
asI-107
(lp1029
(I89
I2121
tp1030
a(I90
I4480
tp1031
a(I160
I38
tp1032
a(I161
I52682
tp1033
a(I169
I8
tp1034
a(I170
I2838
tp1035
asI-106
(lp1036
(I89
I2113
tp1037
a(I90
I4480
tp1038
a(I160
I37
tp1039
a(I161
I37527
tp1040
a(I169
I14
tp1041
a(I170
I46508
tp1042
asI-105
(lp1043
(I89
I2120
tp1044
a(I90
I4480
tp1045
a(I160
I14
tp1046
a(I161
I64625
tp1047
a(I169
I24
tp1048
a(I170
I63713
tp1049
asI-104
(lp1050
(I89
I2112
tp1051
a(I90
I4480
tp1052
a(I160
I13
tp1053
a(I161
I41772
tp1054
a(I169
I30
tp1055
a(I170
I18011
tp1056
asI-103
(lp1057
(I89
I2121
tp1058
a(I90
I33152
tp1059
a(I160
I54
tp1060
a(I161
I11180
tp1061
a(I169
I41
tp1062
a(I170
I51162
tp1063
asI-102
(lp1064
(I89
I2113
tp1065
a(I90
I33152
tp1066
a(I160
I53
tp1067
a(I161
I29937
tp1068
a(I169
I47
tp1069
a(I170
I31072
tp1070
asI-101
(lp1071
(I89
I2120
tp1072
a(I90
I33152
tp1073
a(I160
I30
tp1074
a(I161
I6679
tp1075
a(I169
I57
tp1076
a(I170
I13357
tp1077
asI-100
(lp1078
(I89
I2112
tp1079
a(I90
I33152
tp1080
a(I160
I29
tp1081
a(I161
I17738
tp1082
a(I169
I63
tp1083
a(I170
I35479
tp1084
asI-99
(lp1085
(I89
I2121
tp1086
a(I90
I384
tp1087
a(I160
I63
tp1088
a(I161
I50759
tp1089
a(I169
I58
tp1090
a(I170
I7180
tp1091
asI-98
(lp1092
(I89
I2113
tp1093
a(I90
I384
tp1094
a(I160
I60
tp1095
a(I161
I39194
tp1096
a(I169
I60
tp1097
a(I170
I41654
tp1098
asI-97
(lp1099
(I89
I2120
tp1100
a(I90
I384
tp1101
a(I160
I23
tp1102
a(I161
I63484
tp1103
a(I169
I42
tp1104
a(I170
I61435
tp1105
asI-96
(lp1106
(I89
I2112
tp1107
a(I90
I384
tp1108
a(I160
I20
tp1109
a(I161
I43169
tp1110
a(I169
I44
tp1111
a(I170
I20801
tp1112
asI-95
(lp1113
(I89
I2121
tp1114
a(I90
I39040
tp1115
a(I160
I54
tp1116
a(I161
I6263
tp1117
a(I169
I41
tp1118
a(I170
I41068
tp1119
asI-94
(lp1120
(I89
I2113
tp1121
a(I90
I39040
tp1122
a(I160
I53
tp1123
a(I161
I18218
tp1124
a(I169
I47
tp1125
a(I170
I7894
tp1126
asI-93
(lp1127
(I89
I2120
tp1128
a(I90
I39040
tp1129
a(I160
I30
tp1130
a(I161
I10700
tp1131
a(I169
I57
tp1132
a(I170
I21403
tp1133
asI-92
(lp1134
(I89
I2112
tp1135
a(I90
I39040
tp1136
a(I160
I29
tp1137
a(I161
I30353
tp1138
a(I169
I63
tp1139
a(I170
I60705
tp1140
asI-91
(lp1141
(I89
I2121
tp1142
a(I90
I6272
tp1143
a(I160
I63
tp1144
a(I161
I62876
tp1145
a(I169
I58
tp1146
a(I170
I31674
tp1147
asI-90
(lp1148
(I89
I2113
tp1149
a(I90
I6272
tp1150
a(I160
I60
tp1151
a(I161
I43713
tp1152
a(I169
I60
tp1153
a(I170
I50432
tp1154
asI-89
(lp1155
(I89
I2120
tp1156
a(I90
I6272
tp1157
a(I160
I23
tp1158
a(I161
I50215
tp1159
a(I169
I42
tp1160
a(I170
I34893
tp1161
asI-88
(lp1162
(I89
I2112
tp1163
a(I90
I6272
tp1164
a(I160
I20
tp1165
a(I161
I39802
tp1166
a(I169
I44
tp1167
a(I170
I14071
tp1168
asI-87
(lp1169
(I89
I2121
tp1170
a(I90
I34944
tp1171
a(I160
I47
tp1172
a(I161
I5114
tp1173
a(I169
I27
tp1174
a(I170
I46966
tp1175
asI-86
(lp1176
(I89
I2113
tp1177
a(I90
I34944
tp1178
a(I160
I44
tp1179
a(I161
I19623
tp1180
a(I169
I29
tp1181
a(I170
I2508
tp1182
asI-85
(lp1183
(I89
I2120
tp1184
a(I90
I34944
tp1185
a(I160
I7
tp1186
a(I161
I8769
tp1187
a(I169
I11
tp1188
a(I170
I17537
tp1189
asI-84
(lp1190
(I89
I2112
tp1191
a(I90
I34944
tp1192
a(I160
I4
tp1193
a(I161
I32028
tp1194
a(I169
I13
tp1195
a(I170
I64059
tp1196
asI-83
(lp1197
(I89
I2121
tp1198
a(I90
I2176
tp1199
a(I160
I38
tp1200
a(I161
I65041
tp1201
a(I169
I8
tp1202
a(I170
I27808
tp1203
asI-82
(lp1204
(I89
I2113
tp1205
a(I90
I2176
tp1206
a(I160
I37
tp1207
a(I161
I41292
tp1208
a(I169
I14
tp1209
a(I170
I53786
tp1210
asI-81
(lp1211
(I89
I2120
tp1212
a(I90
I2176
tp1213
a(I160
I14
tp1214
a(I161
I53162
tp1215
a(I169
I24
tp1216
a(I170
I40791
tp1217
asI-80
(lp1218
(I89
I2112
tp1219
a(I90
I2176
tp1220
a(I160
I13
tp1221
a(I161
I37111
tp1222
a(I169
I30
tp1223
a(I170
I8685
tp1224
asI-79
(lp1225
(I89
I2121
tp1226
a(I90
I36992
tp1227
asI-78
(lp1228
(I89
I2113
tp1229
a(I90
I36992
tp1230
a(I160
I25
tp1231
a(I161
I35500
tp1232
a(I169
I54
tp1233
a(I170
I5467
tp1234
asI-77
(lp1235
(I89
I2120
tp1236
a(I90
I36992
tp1237
a(I160
I50
tp1238
a(I161
I58442
tp1239
a(I169
I32
tp1240
a(I170
I22550
tp1241
asI-76
(lp1242
(I89
I2112
tp1243
a(I90
I36992
tp1244
a(I160
I49
tp1245
a(I161
I47895
tp1246
a(I169
I38
tp1247
a(I170
I59052
tp1248
asI-75
(lp1249
(I89
I2121
tp1250
a(I90
I4224
tp1251
a(I160
I19
tp1252
a(I161
I14362
tp1253
a(I169
I35
tp1254
a(I170
I28727
tp1255
asI-74
(lp1256
(I89
I2113
tp1257
a(I90
I4224
tp1258
a(I160
I16
tp1259
a(I161
I26439
tp1260
a(I169
I37
tp1261
a(I170
I52877
tp1262
asI-73
(lp1263
(I89
I2120
tp1264
a(I90
I4224
tp1265
a(I160
I59
tp1266
a(I161
I2465
tp1267
a(I169
I51
tp1268
a(I170
I33728
tp1269
asI-72
(lp1270
(I89
I2112
tp1271
a(I90
I4224
tp1272
a(I160
I56
tp1273
a(I161
I22268
tp1274
a(I169
I53
tp1275
a(I170
I15738
tp1276
asI-71
(lp1277
(I89
I2121
tp1278
a(I90
I32896
tp1279
a(I160
I3
tp1280
a(I161
I56956
tp1281
a(I169
I2
tp1282
a(I170
I48379
tp1283
asI-70
(lp1284
(I89
I2113
tp1285
a(I90
I32896
tp1286
a(I160
I0
tp1287
a(I161
I33057
tp1288
a(I169
I4
tp1289
a(I170
I577
tp1290
asI-69
(lp1291
(I89
I2120
tp1292
a(I90
I32896
tp1293
a(I160
I43
tp1294
a(I161
I61383
tp1295
a(I169
I18
tp1296
a(I170
I20236
tp1297
asI-68
(lp1298
(I89
I2112
tp1299
a(I90
I32896
tp1300
a(I160
I40
tp1301
a(I161
I45210
tp1302
a(I169
I20
tp1303
a(I170
I61878
tp1304
asI-67
(lp1305
(I89
I2121
tp1306
a(I90
I128
tp1307
a(I160
I10
tp1308
a(I161
I13207
tp1309
a(I169
I17
tp1310
a(I170
I26413
tp1311
asI-66
(lp1312
(I89
I2113
tp1313
a(I90
I128
tp1314
a(I160
I9
tp1315
a(I161
I27850
tp1316
a(I169
I23
tp1317
a(I170
I55703
tp1318
asI-65
(lp1319
(I89
I2120
tp1320
a(I90
I128
tp1321
a(I160
I34
tp1322
a(I161
I556
tp1323
a(I169
I1
tp1324
a(I170
I38106
tp1325
asI-64
(lp1326
(I89
I2112
tp1327
a(I90
I128
tp1328
a(I160
I33
tp1329
a(I161
I23921
tp1330
a(I169
I7
tp1331
a(I170
I10848
tp1332
asI-63
(lp1333
(I89
I2121
tp1334
a(I90
I39168
tp1335
a(I160
I25
tp1336
a(I161
I5967
tp1337
a(I169
I55
tp1338
a(I170
I11933
tp1339
asI-62
(lp1340
(I89
I2113
tp1341
a(I90
I39168
tp1342
a(I161
I18450
tp1343
a(I169
I49
tp1344
a(I170
I36903
tp1345
asI-61
(lp1346
(I89
I2120
tp1347
a(I90
I39168
tp1348
a(I160
I49
tp1349
a(I161
I9972
tp1350
a(I169
I39
tp1351
a(I170
I56682
tp1352
asI-60
(lp1353
(I89
I2112
tp1354
a(I90
I39168
tp1355
a(I160
I50
tp1356
a(I161
I31145
tp1357
a(I169
I33
tp1358
a(I170
I25552
tp1359
asI-59
(lp1360
(I89
I2121
tp1361
a(I90
I6400
tp1362
a(I160
I16
tp1363
a(I161
I64164
tp1364
a(I169
I36
tp1365
a(I170
I62795
tp1366
asI-58
(lp1367
(I89
I2113
tp1368
a(I90
I6400
tp1369
a(I160
I19
tp1370
a(I161
I42489
tp1371
a(I169
I34
tp1372
a(I170
I19441
tp1373
asI-57
(lp1374
(I89
I2120
tp1375
a(I90
I6400
tp1376
a(I160
I56
tp1377
a(I161
I51999
tp1378
a(I169
I52
tp1379
a(I170
I1724
tp1380
asI-56
(lp1381
(I89
I2112
tp1382
a(I90
I6400
tp1383
a(I160
I59
tp1384
a(I161
I37954
tp1385
a(I169
I50
tp1386
a(I170
I47110
tp1387
asI-55
(lp1388
(I89
I2121
tp1389
a(I90
I35072
tp1390
a(I160
I0
tp1391
a(I161
I7362
tp1392
a(I169
I5
tp1393
a(I170
I14727
tp1394
asI-54
(lp1395
(I89
I2113
tp1396
a(I90
I35072
tp1397
a(I160
I3
tp1398
a(I161
I17311
tp1399
a(I169
I3
tp1400
a(I170
I34621
tp1401
asI-53
(lp1402
(I89
I2120
tp1403
a(I90
I35072
tp1404
a(I160
I40
tp1405
a(I161
I11641
tp1406
a(I169
I21
tp1407
a(I170
I51824
tp1408
asI-52
(lp1409
(I89
I2112
tp1410
a(I90
I35072
tp1411
a(I160
I43
tp1412
a(I161
I29220
tp1413
a(I169
I19
tp1414
a(I170
I29898
tp1415
asI-51
(lp1416
(I89
I2121
tp1417
a(I90
I2304
tp1418
a(I160
I9
tp1419
a(I161
I61737
tp1420
a(I169
I22
tp1421
a(I170
I57937
tp1422
asI-50
(lp1423
(I89
I2113
tp1424
a(I90
I2304
tp1425
a(I160
I10
tp1426
a(I161
I44660
tp1427
a(I169
I16
tp1428
a(I170
I23787
tp1429
asI-49
(lp1430
(I89
I2120
tp1431
a(I90
I2304
tp1432
a(I160
I33
tp1433
a(I161
I49298
tp1434
a(I169
I6
tp1435
a(I170
I4518
tp1436
asI-48
(lp1437
(I89
I2112
tp1438
a(I90
I2304
tp1439
a(I160
I34
tp1440
a(I161
I40911
tp1441
a(I169
I0
tp1442
a(I170
I44828
tp1443
asI-47
(lp1444
(I89
I2121
tp1445
a(I90
I37120
tp1446
a(I160
I53
tp1447
a(I161
I56009
tp1448
a(I169
I46
tp1449
a(I170
I9488
tp1450
asI-46
(lp1451
(I89
I2113
tp1452
a(I90
I37120
tp1453
a(I160
I54
tp1454
a(I161
I34196
tp1455
a(I169
I40
tp1456
a(I170
I39850
tp1457
asI-45
(lp1458
(I89
I2120
tp1459
a(I90
I37120
tp1460
a(I160
I29
tp1461
a(I161
I60274
tp1462
a(I169
I62
tp1463
a(I170
I55015
tp1464
asI-44
(lp1465
(I89
I2112
tp1466
a(I90
I37120
tp1467
a(I160
I30
tp1468
a(I161
I46127
tp1469
a(I169
I56
tp1470
a(I170
I26717
tp1471
asI-43
(lp1472
(I89
I2121
tp1473
a(I90
I4352
tp1474
a(I160
I60
tp1475
a(I161
I14114
tp1476
a(I169
I61
tp1477
a(I170
I65222
tp1478
asI-42
(lp1479
(I89
I2113
tp1480
a(I90
I4352
tp1481
a(I160
I63
tp1482
a(I161
I26751
tp1483
a(I169
I59
tp1484
a(I170
I16508
tp1485
asI-41
(lp1486
(I89
I2120
tp1487
a(I90
I4352
tp1488
a(I160
I20
tp1489
a(I161
I1689
tp1490
a(I169
I45
tp1491
a(I170
I3377
tp1492
asI-40
(lp1493
(I89
I2112
tp1494
a(I90
I4352
tp1495
a(I160
I23
tp1496
a(I161
I22980
tp1497
a(I169
I43
tp1498
a(I170
I45963
tp1499
asI-39
(lp1500
(I89
I2121
tp1501
a(I90
I33024
tp1502
a(I160
I44
tp1503
a(I161
I53572
tp1504
a(I169
I28
tp1505
a(I170
I12810
tp1506
asI-38
(lp1507
(I89
I2113
tp1508
a(I90
I33024
tp1509
a(I160
I47
tp1510
a(I161
I36377
tp1511
a(I169
I26
tp1512
a(I170
I36016
tp1513
asI-37
(lp1514
(I89
I2120
tp1515
a(I90
I33024
tp1516
a(I160
I4
tp1517
a(I161
I57599
tp1518
a(I169
I12
tp1519
a(I170
I49661
tp1520
asI-36
(lp1521
(I89
I2112
tp1522
a(I90
I33024
tp1523
a(I160
I7
tp1524
a(I161
I49058
tp1525
a(I169
I10
tp1526
a(I170
I32583
tp1527
asI-35
(lp1528
(I89
I2121
tp1529
a(I90
I256
tp1530
a(I160
I37
tp1531
a(I161
I15535
tp1532
a(I169
I15
tp1533
a(I170
I59868
tp1534
asI-34
(lp1535
(I89
I2113
tp1536
a(I90
I256
tp1537
a(I160
I38
tp1538
a(I161
I25586
tp1539
a(I169
I9
tp1540
a(I170
I22374
tp1541
asI-33
(lp1542
(I89
I2120
tp1543
a(I90
I256
tp1544
a(I160
I13
tp1545
a(I161
I3348
tp1546
a(I169
I31
tp1547
a(I170
I6699
tp1548
asI-32
(lp1549
(I89
I2112
tp1550
a(I90
I256
tp1551
a(I160
I14
tp1552
a(I161
I21065
tp1553
a(I169
I25
tp1554
a(I170
I42129
tp1555
asI-31
(lp1556
(I89
I2121
tp1557
a(I90
I38912
tp1558
a(I160
I44
tp1559
a(I161
I58015
tp1560
a(I169
I28
tp1561
a(I170
I21948
tp1562
asI-30
(lp1563
(I89
I2113
tp1564
a(I90
I38912
tp1565
a(I160
I47
tp1566
a(I161
I48578
tp1567
a(I169
I26
tp1568
a(I170
I60166
tp1569
asI-29
(lp1570
(I89
I2120
tp1571
a(I90
I38912
tp1572
a(I160
I4
tp1573
a(I161
I54052
tp1574
a(I169
I12
tp1575
a(I170
I42571
tp1576
asI-28
(lp1577
(I89
I2112
tp1578
a(I90
I38912
tp1579
a(I160
I7
tp1580
a(I161
I35961
tp1581
a(I169
I10
tp1582
a(I170
I6385
tp1583
asI-27
(lp1584
(I89
I2121
tp1585
a(I90
I6144
tp1586
a(I160
I37
tp1587
a(I161
I3956
tp1588
a(I169
I15
tp1589
a(I170
I36458
tp1590
asI-26
(lp1591
(I89
I2113
tp1592
a(I90
I6144
tp1593
a(I160
I38
tp1594
a(I161
I20521
tp1595
a(I169
I9
tp1596
a(I170
I12496
tp1597
asI-25
(lp1598
(I89
I2120
tp1599
a(I90
I6144
tp1600
a(I160
I13
tp1601
a(I161
I16079
tp1602
a(I169
I31
tp1603
a(I170
I32157
tp1604
asI-24
(lp1605
(I89
I2112
tp1606
a(I90
I6144
tp1607
a(I160
I14
tp1608
a(I161
I24978
tp1609
a(I169
I25
tp1610
a(I170
I49959
tp1611
asI-23
(lp1612
(I89
I2121
tp1613
a(I90
I34816
tp1614
a(I160
I53
tp1615
a(I161
I59666
tp1616
a(I169
I46
tp1617
a(I170
I17062
tp1618
asI-22
(lp1619
(I89
I2113
tp1620
a(I90
I34816
tp1621
a(I160
I54
tp1622
a(I161
I46671
tp1623
a(I169
I40
tp1624
a(I170
I64540
tp1625
asI-21
(lp1626
(I89
I2120
tp1627
a(I90
I34816
tp1628
a(I160
I29
tp1629
a(I161
I55465
tp1630
a(I169
I62
tp1631
a(I170
I45393
tp1632
asI-20
(lp1633
(I89
I2112
tp1634
a(I90
I34816
tp1635
a(I160
I30
tp1636
a(I161
I34804
tp1637
a(I169
I56
tp1638
a(I170
I4075
tp1639
asI-19
(lp1640
(I89
I2121
tp1641
a(I90
I2048
tp1642
a(I160
I60
tp1643
a(I161
I1273
tp1644
a(I169
I61
tp1645
a(I170
I39280
tp1646
asI-18
(lp1647
(I89
I2113
tp1648
a(I90
I2048
tp1649
a(I160
I63
tp1650
a(I161
I23460
tp1651
a(I169
I59
tp1652
a(I170
I10186
tp1653
asI-17
(lp1654
(I89
I2120
tp1655
a(I90
I2048
tp1656
a(I160
I20
tp1657
a(I161
I13634
tp1658
a(I169
I45
tp1659
a(I170
I27271
tp1660
asI-16
(lp1661
(I89
I2112
tp1662
a(I90
I2048
tp1663
a(I160
I23
tp1664
a(I161
I27167
tp1665
a(I169
I43
tp1666
a(I170
I54333
tp1667
asI-15
(lp1668
(I89
I2121
tp1669
a(I160
I0
tp1670
a(I161
I12057
tp1671
a(I169
I5
tp1672
a(I170
I24113
tp1673
asI-14
(lp1674
(I89
I2113
tp1675
a(I160
I3
tp1676
a(I161
I28740
tp1677
a(I169
I3
tp1678
a(I170
I57483
tp1679
asI-13
(lp1680
(I89
I2120
tp1681
a(I160
I40
tp1682
a(I161
I7842
tp1683
a(I169
I21
tp1684
a(I170
I44486
tp1685
asI-12
(lp1686
(I89
I2112
tp1687
a(I160
I43
tp1688
a(I161
I16895
tp1689
a(I169
I19
tp1690
a(I170
I4988
tp1691
asI-11
(lp1692
(I89
I2121
tp1693
a(I90
I4096
tp1694
a(I160
I9
tp1695
a(I161
I49906
tp1696
a(I169
I22
tp1697
a(I170
I34279
tp1698
asI-10
(lp1699
(I89
I2113
tp1700
a(I90
I4096
tp1701
a(I160
I10
tp1702
a(I161
I40367
tp1703
a(I169
I16
tp1704
a(I170
I15197
tp1705
asI-9
(lp1706
(I89
I2120
tp1707
a(I90
I4096
tp1708
a(I160
I33
tp1709
a(I161
I62281
tp1710
a(I169
I6
tp1711
a(I170
I30224
tp1712
asI-8
(lp1713
(I89
I2112
tp1714
a(I90
I4096
tp1715
a(I160
I34
tp1716
a(I161
I44052
tp1717
a(I169
I0
tp1718
a(I170
I51370
tp1719
asI-7
(lp1720
(I89
I2121
tp1721
a(I90
I32768
tp1722
a(I160
I25
tp1723
a(I161
I9364
tp1724
a(I169
I55
tp1725
a(I170
I18731
tp1726
asI-6
(lp1727
(I89
I2113
tp1728
a(I90
I32768
tp1729
a(I161
I31689
tp1730
a(I169
I49
tp1731
a(I170
I63377
tp1732
asI-5
(lp1733
(I89
I2120
tp1734
a(I90
I32768
tp1735
a(I160
I49
tp1736
a(I161
I5423
tp1737
a(I169
I39
tp1738
a(I170
I47836
tp1739
asI-4
(lp1740
(I89
I2112
tp1741
a(I90
I32768
tp1742
a(I160
I50
tp1743
a(I161
I19058
tp1744
a(I169
I33
tp1745
a(I170
I1126
tp1746
asI-3
(lp1747
(I89
I2121
tp1748
a(I90
I0
tp1749
a(I160
I16
tp1750
a(I161
I51583
tp1751
a(I169
I36
tp1752
a(I170
I37629
tp1753
asI-2
(lp1754
(I89
I2113
tp1755
a(I90
I0
tp1756
a(I160
I19
tp1757
a(I161
I38434
tp1758
a(I169
I34
tp1759
a(I170
I11335
tp1760
assS'location'
p1761
S'reg_clockglitch/gc/DCM_extclock_gen2'
p1762
sS'base'
p1763
(lp1764
I65535
aI65535
aI65535
aI65535
aI65535
aI65535
aI65535
aI65535
aI43673
aI21862
aI12449
aI7
aI8192
aI12705
aI1160
aI12738
aI1024
aI16531
aI12609
aI15616
aI12641
aI2542
aI12322
aI787
aI30
aI12449
aI1
aI20576
aI0
aI130
aI0
aI0
aI0
aI0
aI0
aI0
aI0
aI0
aI0
aI0
aI0
aI32768
aI4096
aI0
aI0
aI323
aI1
aI27809
aI16896
aI51648
aI8706
aI24
aI43536
aI6144
aI88
aI18739
aI24576
aI53772
aI0
aI0
aI0
aI0
aI0
aI0
aI0
aI0
aI0
aI52356
aI4353
aI1280
aI2454
aI2586
aI4516
aI23040
aI4096
aI4112
aI0
aI49216
aI34944
aI512
aI4
aI1024
aI22
aI6144
aI0
aI0
aI0
aI0
aI16384
aI2057
aI36864
aI0
aI0
aI0
aI0
aI65535
aI65535
aI65535
aI65535
aI65535
aI65535
aI65535
aI65535
aI65535
aI65535
aI65535
aI65535
aI65535
aI65535
aI65535
aI65535
aI65535
aI65535
aI65535
aI65535
aI65535
aI65535
aI65535
aI65535
aI65535
aI65535
aI65535
aI65535
aI65535
aI65535
aI65535
aI65535
aI65535
aI65535
aI65535
aI65535
aI65535
aI65535
aI65535
aI65535
aI65535
aI65535
aI65535
aI65535
aI65535
aI65535
aI65535
aI65535
aI65535
aI65535
aI65535
aI65535
aI65535
aI65535
aI65535
aI65535
aI65535
aI65535
aI65535
aI65535
aI65535
aI65535
aI65535
aI65535
aI65535
aI26
aI54769
aI12449
aI3
aI8192
aI8192
aI8192
aI8192
aI12290
aI48
aI44001
aI12449
aI13
aI8192
aI8192
aI8192
aI8192
aI8192
aI8192
aI8192
aI8192
aI8192
aI8192
aI8192
aI8192
aI8192
aI8192
aI8192
aI8192
asS'crc32'
p1765
I0
sS'desc'
p1766
S'Glitch Width'
p1767
s.