(dp0
S'part'
p1
S'6slx25ftg256'
p2
sS'values'
p3
(dp4
I0
(lp5
(I22
I12449
tp6
a(I23
I3
tp7
a(I24
I8192
tp8
a(I25
I8192
tp9
a(I26
I8192
tp10
a(I27
I8192
tp11
a(I28
I12290
tp12
a(I29
I11
tp13
a(I30
I28739
tp14
a(I31
I12449
tp15
a(I32
I13
tp16
a(I33
I8192
tp17
a(I34
I8192
tp18
a(I35
I8192
tp19
a(I36
I8192
tp20
a(I37
I8192
tp21
a(I38
I8192
tp22
a(I39
I8192
tp23
a(I40
I8192
tp24
a(I41
I8192
tp25
a(I42
I8192
tp26
a(I43
I8192
tp27
a(I44
I8192
tp28
a(I45
I8192
tp29
a(I46
I8192
tp30
a(I47
I8192
tp31
a(I48
I8192
tp32
asI1
(lp33
(I40
I128
tp34
a(I160
I63
tp35
a(I161
I13756
tp36
a(I169
I59
tp37
a(I170
I64506
tp38
asI2
(lp39
(I40
I1024
tp40
a(I160
I33
tp41
a(I161
I20291
tp42
a(I169
I7
tp43
a(I170
I3588
tp44
asI3
(lp45
(I40
I1152
tp46
a(I160
I48
tp47
a(I161
I40470
tp48
a(I169
I36
tp49
a(I170
I44206
tp50
asI4
(lp51
(I40
I2048
tp52
a(I160
I49
tp53
a(I161
I46013
tp54
a(I169
I38
tp55
a(I170
I63480
tp56
asI5
(lp57
(I40
I2176
tp58
a(I160
I32
tp59
a(I161
I25320
tp60
a(I169
I5
tp61
a(I170
I21842
tp62
asI6
(lp63
(I40
I3072
tp64
a(I160
I62
tp65
a(I161
I6167
tp66
a(I169
I57
tp67
a(I170
I41132
tp68
asI7
(lp69
(I40
I3200
tp70
a(I160
I47
tp71
a(I161
I51522
tp72
a(I169
I26
tp73
a(I170
I518
tp74
asI8
(lp75
(I40
I16384
tp76
a(I160
I21
tp77
a(I161
I61386
tp78
a(I169
I46
tp79
a(I170
I57239
tp80
asI9
(lp81
(I40
I16512
tp82
a(I160
I4
tp83
a(I161
I16031
tp84
a(I169
I13
tp85
a(I170
I32061
tp86
asI10
(lp87
(I40
I17408
tp88
a(I160
I26
tp89
a(I161
I17504
tp90
a(I169
I49
tp91
a(I170
I35011
tp92
asI11
(lp93
(I40
I17536
tp94
a(I160
I11
tp95
a(I161
I38197
tp96
a(I169
I18
tp97
a(I170
I10857
tp98
asI12
(lp99
(I40
I18432
tp100
a(I160
I10
tp101
a(I161
I47262
tp102
a(I169
I16
tp103
a(I170
I28991
tp104
asI13
(lp105
(I40
I18560
tp106
a(I160
I27
tp107
a(I161
I27083
tp108
a(I169
I51
tp109
a(I170
I54165
tp110
asI14
(lp111
(I40
I19456
tp112
a(I160
I5
tp113
a(I161
I4916
tp114
a(I169
I15
tp115
a(I170
I9835
tp116
asI15
(lp117
(I40
I19584
tp118
a(I160
I20
tp119
a(I161
I49761
tp120
a(I169
I44
tp121
a(I170
I33985
tp122
asI16
(lp123
(I40
I32768
tp124
a(I160
I24
tp125
a(I161
I25134
tp126
a(I169
I53
tp127
a(I170
I50271
tp128
asI17
(lp129
(I40
I32896
tp130
a(I160
I9
tp131
a(I161
I45947
tp132
a(I169
I22
tp133
a(I170
I26357
tp134
asI18
(lp135
(I40
I33792
tp136
a(I160
I23
tp137
a(I161
I51588
tp138
a(I169
I42
tp139
a(I170
I37643
tp140
asI19
(lp141
(I40
I33920
tp142
a(I160
I6
tp143
a(I161
I6353
tp144
a(I169
I9
tp145
a(I170
I12705
tp146
asI20
(lp147
(I40
I34816
tp148
a(I160
I7
tp149
a(I161
I13690
tp150
a(I169
I11
tp151
a(I170
I27383
tp152
asI21
(lp153
(I40
I34944
tp154
a(I160
I22
tp155
a(I161
I58415
tp156
a(I169
I40
tp157
a(I170
I51293
tp158
asI22
(lp159
(I40
I35840
tp160
a(I160
I8
tp161
a(I161
I40656
tp162
a(I169
I20
tp163
a(I170
I15779
tp164
asI23
(lp165
(I40
I35968
tp166
a(I160
I25
tp167
a(I161
I20357
tp168
a(I169
I55
tp169
a(I170
I40713
tp170
asI24
(lp171
(I40
I49152
tp172
a(I160
I35
tp173
a(I161
I26893
tp174
a(I169
I3
tp175
a(I170
I17048
tp176
asI25
(lp177
(I40
I49280
tp178
a(I160
I50
tp179
a(I161
I47192
tp180
a(I169
I32
tp181
a(I170
I57394
tp182
asI26
(lp183
(I40
I50176
tp184
a(I160
I44
tp185
a(I161
I49831
tp186
a(I169
I28
tp187
a(I170
I5580
tp188
asI27
(lp189
(I40
I50304
tp190
a(I160
I61
tp191
a(I161
I5106
tp192
a(I169
I63
tp193
a(I170
I46950
tp194
asI28
(lp195
(I40
I51200
tp196
a(I160
I60
tp197
a(I161
I15961
tp198
a(I169
I61
tp199
a(I170
I60464
tp200
asI29
(lp201
(I40
I51328
tp202
a(I160
I45
tp203
a(I161
I61196
tp204
a(I169
I30
tp205
a(I170
I20122
tp206
asI30
(lp207
(I40
I52224
tp208
a(I160
I51
tp209
a(I161
I38387
tp210
a(I169
I34
tp211
a(I170
I47972
tp212
asI31
(lp213
(I40
I52352
tp214
a(I160
I34
tp215
a(I161
I17574
tp216
a(I169
I1
tp217
a(I170
I6606
tp218
asI32
(lp219
(I39
I4
tp220
a(I160
I59
tp221
a(I161
I54484
tp222
a(I169
I50
tp223
a(I170
I14634
tp224
asI33
(lp225
(I39
I4
tp226
a(I40
I128
tp227
a(I160
I42
tp228
a(I161
I1409
tp229
a(I169
I17
tp230
a(I170
I39808
tp231
asI34
(lp232
(I39
I4
tp233
a(I40
I1024
tp234
a(I160
I52
tp235
a(I161
I32638
tp236
a(I169
I45
tp237
a(I170
I28286
tp238
asI35
(lp239
(I39
I4
tp240
a(I40
I1152
tp241
a(I160
I37
tp242
a(I161
I44587
tp243
a(I169
I14
tp244
a(I170
I52436
tp245
asI36
(lp246
(I39
I4
tp247
a(I40
I2048
tp248
a(I160
I36
tp249
a(I161
I33664
tp250
a(I169
I12
tp251
a(I170
I38786
tp252
asI37
(lp253
(I39
I4
tp254
a(I40
I2176
tp255
a(I160
I53
tp256
a(I161
I21205
tp257
a(I169
I47
tp258
a(I170
I13608
tp259
asI38
(lp260
(I39
I4
tp261
a(I40
I3072
tp262
a(I160
I43
tp263
a(I161
I10282
tp264
a(I169
I19
tp265
a(I170
I49366
tp266
asI39
(lp267
(I39
I4
tp268
a(I40
I3200
tp269
a(I160
I58
tp270
a(I161
I63871
tp271
a(I169
I48
tp272
a(I170
I25212
tp273
asI40
(lp274
(I39
I4
tp275
a(I40
I16384
tp276
a(I160
I0
tp277
a(I161
I57335
tp278
a(I169
I4
tp279
a(I170
I49133
tp280
asI41
(lp281
(I39
I4
tp282
a(I40
I16512
tp283
a(I160
I17
tp284
a(I161
I3746
tp285
a(I169
I39
tp286
a(I170
I7495
tp287
asI42
(lp288
(I39
I4
tp289
a(I40
I17408
tp290
a(I160
I15
tp291
a(I161
I29789
tp292
a(I169
I27
tp293
a(I170
I59577
tp294
asI43
(lp295
(I39
I4
tp296
a(I40
I17536
tp297
a(I160
I30
tp298
a(I161
I42248
tp299
a(I169
I56
tp300
a(I170
I18963
tp301
asI44
(lp302
(I39
I4
tp303
a(I40
I18432
tp304
a(I160
I31
tp305
a(I161
I34979
tp306
a(I169
I58
tp307
a(I170
I4421
tp308
asI45
(lp309
(I39
I4
tp310
a(I40
I18560
tp311
a(I160
I14
tp312
a(I161
I23030
tp313
a(I169
I25
tp314
a(I170
I46063
tp315
asI46
(lp316
(I39
I4
tp317
a(I40
I19456
tp318
a(I160
I16
tp319
a(I161
I8969
tp320
a(I169
I37
tp321
a(I170
I17937
tp322
asI47
(lp323
(I39
I4
tp324
a(I40
I19584
tp325
a(I160
I1
tp326
a(I161
I62044
tp327
a(I169
I6
tp328
a(I170
I58555
tp329
asI48
(lp330
(I39
I4
tp331
a(I40
I32768
tp332
a(I160
I13
tp333
a(I161
I21011
tp334
a(I169
I31
tp335
a(I170
I42021
tp336
asI49
(lp337
(I39
I4
tp338
a(I40
I32896
tp339
a(I160
I28
tp340
a(I161
I33606
tp341
a(I169
I60
tp342
a(I170
I1679
tp343
asI50
(lp344
(I39
I4
tp345
a(I40
I33792
tp346
a(I160
I2
tp347
a(I161
I63929
tp348
a(I169
I0
tp349
a(I170
I62321
tp350
asI51
(lp351
(I39
I4
tp352
a(I40
I33920
tp353
a(I160
I19
tp354
a(I161
I10476
tp355
a(I169
I35
tp356
a(I170
I20955
tp357
asI52
(lp358
(I39
I4
tp359
a(I40
I34816
tp360
a(I160
I18
tp361
a(I161
I1351
tp362
a(I169
I33
tp363
a(I170
I2701
tp364
asI53
(lp365
(I39
I4
tp366
a(I40
I34944
tp367
a(I160
I3
tp368
a(I161
I54290
tp369
a(I169
I2
tp370
a(I170
I43047
tp371
asI54
(lp372
(I39
I4
tp373
a(I40
I35840
tp374
a(I160
I29
tp375
a(I161
I44781
tp376
a(I169
I62
tp377
a(I170
I24025
tp378
asI55
(lp379
(I39
I4
tp380
a(I40
I35968
tp381
a(I160
I12
tp382
a(I161
I32696
tp383
a(I169
I29
tp384
a(I170
I65395
tp385
asI56
(lp386
(I39
I4
tp387
a(I40
I49152
tp388
a(I160
I54
tp389
a(I161
I22832
tp390
a(I169
I41
tp391
a(I170
I8930
tp392
asI57
(lp393
(I39
I4
tp394
a(I40
I49280
tp395
a(I160
I39
tp396
a(I161
I34917
tp397
a(I169
I10
tp398
a(I170
I32840
tp399
asI58
(lp400
(I39
I4
tp401
a(I40
I50176
tp402
a(I160
I57
tp403
a(I161
I62106
tp404
a(I169
I54
tp405
a(I170
I30134
tp406
asI59
(lp407
(I39
I4
tp408
a(I40
I50304
tp409
a(I160
I40
tp410
a(I161
I9167
tp411
a(I169
I21
tp412
a(I170
I55068
tp413
asI60
(lp414
(I39
I4
tp415
a(I40
I51200
tp416
a(I160
I41
tp417
a(I161
I3684
tp418
a(I169
I23
tp419
a(I170
I35914
tp420
asI61
(lp421
(I39
I4
tp422
a(I40
I51328
tp423
a(I160
I56
tp424
a(I161
I57137
tp425
a(I169
I52
tp426
a(I170
I12000
tp427
asI62
(lp428
(I39
I4
tp429
a(I40
I52224
tp430
a(I160
I38
tp431
a(I161
I42446
tp432
a(I169
I8
tp433
a(I170
I56094
tp434
asI63
(lp435
(I39
I4
tp436
a(I40
I52352
tp437
a(I160
I55
tp438
a(I161
I29851
tp439
a(I169
I43
tp440
a(I170
I31156
tp441
asI64
(lp442
(I39
I8
tp443
a(I160
I4
tp444
a(I161
I33939
tp445
a(I169
I12
tp446
a(I170
I2341
tp447
asI65
(lp448
(I39
I8
tp449
a(I40
I128
tp450
a(I160
I21
tp451
a(I161
I21958
tp452
a(I169
I47
tp453
a(I170
I43919
tp454
asI66
(lp455
(I39
I8
tp456
a(I40
I1024
tp457
a(I160
I11
tp458
a(I161
I12089
tp459
a(I169
I19
tp460
a(I170
I24177
tp461
asI67
(lp462
(I39
I8
tp463
a(I40
I1152
tp464
a(I160
I26
tp465
a(I161
I65132
tp466
a(I169
I48
tp467
a(I170
I64731
tp468
asI68
(lp469
(I39
I8
tp470
a(I40
I2048
tp471
a(I160
I27
tp472
a(I161
I54215
tp473
a(I169
I50
tp474
a(I170
I42893
tp475
asI69
(lp476
(I39
I8
tp477
a(I40
I2176
tp478
a(I160
I10
tp479
a(I161
I658
tp480
a(I169
I17
tp481
a(I170
I1319
tp482
asI70
(lp483
(I39
I8
tp484
a(I40
I3072
tp485
a(I160
I20
tp486
a(I161
I30829
tp487
a(I169
I45
tp488
a(I170
I61657
tp489
asI71
(lp490
(I39
I8
tp491
a(I40
I3200
tp492
a(I160
I5
tp493
a(I161
I43320
tp494
a(I169
I14
tp495
a(I170
I21107
tp496
asI72
(lp497
(I39
I8
tp498
a(I40
I16384
tp499
a(I160
I63
tp500
a(I161
I36784
tp501
a(I169
I58
tp502
a(I170
I36834
tp503
asI73
(lp504
(I39
I8
tp505
a(I40
I16512
tp506
a(I161
I24293
tp507
a(I169
I25
tp508
a(I170
I11592
tp509
asI74
(lp510
(I39
I8
tp511
a(I40
I17408
tp512
a(I160
I48
tp513
a(I161
I9242
tp514
a(I169
I37
tp515
a(I170
I55478
tp516
asI75
(lp517
(I39
I8
tp518
a(I40
I17536
tp519
a(I160
I33
tp520
a(I161
I62799
tp521
a(I169
I6
tp522
a(I170
I31260
tp523
asI76
(lp524
(I39
I8
tp525
a(I40
I18432
tp526
a(I160
I32
tp527
a(I161
I55524
tp528
a(I169
I4
tp529
a(I170
I8522
tp530
asI77
(lp531
(I39
I8
tp532
a(I40
I18560
tp533
a(I160
I49
tp534
a(I161
I2481
tp535
a(I169
I39
tp536
a(I170
I33760
tp537
asI78
(lp538
(I39
I8
tp539
a(I40
I19456
tp540
a(I160
I47
tp541
a(I161
I29518
tp542
a(I169
I27
tp543
a(I170
I30238
tp544
asI79
(lp545
(I39
I8
tp546
a(I40
I19584
tp547
a(I160
I62
tp548
a(I161
I41499
tp549
a(I169
I56
tp550
a(I170
I54452
tp551
asI80
(lp552
(I39
I8
tp553
a(I40
I32768
tp554
a(I160
I50
tp555
a(I161
I596
tp556
a(I169
I33
tp557
a(I170
I37930
tp558
asI81
(lp559
(I39
I8
tp560
a(I40
I32896
tp561
a(I160
I35
tp562
a(I161
I54017
tp563
a(I169
I2
tp564
a(I170
I13952
tp565
asI82
(lp566
(I39
I8
tp567
a(I40
I33792
tp568
a(I160
I61
tp569
a(I161
I43518
tp570
a(I169
I62
tp571
a(I170
I50046
tp572
asI83
(lp573
(I39
I8
tp574
a(I40
I33920
tp575
a(I160
I44
tp576
a(I161
I30891
tp577
a(I169
I29
tp578
a(I170
I25044
tp579
asI84
(lp580
(I39
I8
tp581
a(I40
I34816
tp582
a(I160
I45
tp583
a(I161
I21760
tp584
a(I169
I31
tp585
a(I170
I14978
tp586
asI85
(lp587
(I39
I8
tp588
a(I40
I34944
tp589
a(I160
I60
tp590
a(I161
I33877
tp591
a(I169
I60
tp592
a(I170
I38952
tp593
asI86
(lp594
(I39
I8
tp595
a(I40
I35840
tp596
a(I160
I34
tp597
a(I161
I65194
tp598
a(I169
I0
tp599
a(I170
I28118
tp600
asI87
(lp601
(I39
I8
tp602
a(I40
I35968
tp603
a(I160
I51
tp604
a(I161
I12287
tp605
a(I169
I35
tp606
a(I170
I53116
tp607
asI88
(lp608
(I39
I8
tp609
a(I40
I49152
tp610
a(I160
I9
tp611
a(I161
I2423
tp612
a(I169
I23
tp613
a(I170
I4845
tp614
asI89
(lp615
(I39
I8
tp616
a(I40
I49280
tp617
a(I160
I24
tp618
a(I161
I55330
tp619
a(I169
I52
tp620
a(I170
I45127
tp621
asI90
(lp622
(I39
I8
tp623
a(I40
I50176
tp624
a(I160
I6
tp625
a(I161
I41693
tp626
a(I169
I8
tp627
a(I170
I17849
tp628
asI91
(lp629
(I39
I8
tp630
a(I40
I50304
tp631
a(I160
I23
tp632
a(I161
I29576
tp633
a(I169
I43
tp634
a(I170
I59155
tp635
asI92
(lp636
(I39
I8
tp637
a(I40
I51200
tp638
a(I160
I22
tp639
a(I161
I24099
tp640
a(I169
I41
tp641
a(I170
I48197
tp642
asI93
(lp643
(I39
I8
tp644
a(I40
I51328
tp645
a(I160
I7
tp646
a(I161
I36726
tp647
a(I169
I10
tp648
a(I170
I7919
tp649
asI94
(lp650
(I39
I8
tp651
a(I40
I52224
tp652
a(I160
I25
tp653
a(I161
I62857
tp654
a(I169
I54
tp655
a(I170
I60177
tp656
asI95
(lp657
(I39
I8
tp658
a(I40
I52352
tp659
a(I160
I8
tp660
a(I161
I9436
tp661
a(I169
I21
tp662
a(I170
I18875
tp663
asI96
(lp664
(I39
I12
tp665
a(I160
I17
tp666
a(I161
I46254
tp667
a(I169
I38
tp668
a(I170
I26975
tp669
asI97
(lp670
(I39
I12
tp671
a(I40
I128
tp672
a(I160
I0
tp673
a(I161
I26107
tp674
a(I169
I5
tp675
a(I170
I52213
tp676
asI98
(lp677
(I39
I12
tp678
a(I40
I1024
tp679
a(I160
I30
tp680
a(I161
I7940
tp681
a(I169
I57
tp682
a(I170
I15883
tp683
asI99
(lp684
(I39
I12
tp685
a(I40
I1152
tp686
a(I160
I15
tp687
a(I161
I52817
tp688
a(I169
I26
tp689
a(I170
I40097
tp690
asI100
(lp691
(I39
I12
tp692
a(I40
I2048
tp693
a(I160
I14
tp694
a(I161
I58362
tp695
a(I170
I51191
tp696
asI101
(lp697
(I39
I12
tp698
a(I40
I2176
tp699
a(I160
I31
tp700
a(I161
I12975
tp701
a(I169
I59
tp702
a(I170
I25949
tp703
asI102
(lp704
(I39
I12
tp705
a(I40
I3072
tp706
a(I160
I1
tp707
a(I161
I18512
tp708
a(I169
I7
tp709
a(I170
I37027
tp710
asI103
(lp711
(I39
I12
tp712
a(I40
I3200
tp713
a(I160
I16
tp714
a(I161
I39173
tp715
a(I169
I36
tp716
a(I170
I12809
tp717
asI104
(lp718
(I39
I12
tp719
a(I40
I16384
tp720
a(I160
I42
tp721
a(I161
I49037
tp722
a(I169
I16
tp723
a(I170
I61336
tp724
asI105
(lp725
(I39
I12
tp726
a(I40
I16512
tp727
a(I160
I59
tp728
a(I161
I28376
tp729
a(I169
I51
tp730
a(I170
I19762
tp731
asI106
(lp732
(I39
I12
tp733
a(I40
I17408
tp734
a(I160
I37
tp735
a(I161
I5159
tp736
a(I169
I15
tp737
a(I170
I47308
tp738
asI107
(lp739
(I39
I12
tp740
a(I40
I17536
tp741
a(I160
I52
tp742
a(I161
I50546
tp743
a(I169
I44
tp744
a(I170
I6758
tp745
asI108
(lp746
(I39
I12
tp747
a(I40
I18432
tp748
a(I160
I53
tp749
a(I161
I59609
tp750
a(I169
I46
tp751
a(I170
I16688
tp752
asI109
(lp753
(I39
I12
tp754
a(I40
I18560
tp755
a(I160
I36
tp756
a(I161
I14732
tp757
a(I169
I13
tp758
a(I170
I58266
tp759
asI110
(lp760
(I39
I12
tp761
a(I40
I19456
tp762
a(I160
I58
tp763
a(I161
I17267
tp764
a(I169
I49
tp765
a(I170
I5732
tp766
asI111
(lp767
(I39
I12
tp768
a(I40
I19584
tp769
a(I160
I43
tp770
a(I161
I37414
tp771
a(I169
I18
tp772
a(I170
I46286
tp773
asI112
(lp774
(I39
I12
tp775
a(I40
I32768
tp776
a(I160
I39
tp777
a(I161
I12905
tp778
a(I169
I11
tp779
a(I170
I62544
tp780
asI113
(lp781
(I39
I12
tp782
a(I40
I32896
tp783
a(I160
I54
tp784
a(I161
I58172
tp785
a(I169
I40
tp786
a(I170
I22266
tp787
asI114
(lp788
(I39
I12
tp789
a(I40
I33792
tp790
a(I160
I40
tp791
a(I161
I39363
tp792
a(I169
I20
tp793
a(I170
I41732
tp794
asI115
(lp795
(I39
I12
tp796
a(I40
I33920
tp797
a(I160
I57
tp798
a(I161
I18582
tp799
a(I169
I55
tp800
a(I170
I430
tp801
asI116
(lp802
(I39
I12
tp803
a(I40
I34816
tp804
a(I160
I56
tp805
a(I161
I25917
tp806
a(I169
I53
tp807
a(I170
I23288
tp808
asI117
(lp809
(I39
I12
tp810
a(I40
I34944
tp811
a(I160
I41
tp812
a(I161
I46184
tp813
a(I169
I22
tp814
a(I170
I63570
tp815
asI118
(lp816
(I39
I12
tp817
a(I40
I35840
tp818
a(I160
I55
tp819
a(I161
I52887
tp820
a(I169
I42
tp821
a(I170
I3500
tp822
asI119
(lp823
(I39
I12
tp824
a(I40
I35968
tp825
a(I160
I38
tp826
a(I161
I8130
tp827
a(I169
I9
tp828
a(I170
I44806
tp829
asI120
(lp830
(I39
I12
tp831
a(I40
I49152
tp832
a(I160
I28
tp833
a(I161
I14666
tp834
a(I169
I61
tp835
a(I170
I29335
tp836
asI121
(lp837
(I39
I12
tp838
a(I40
I49280
tp839
a(I160
I13
tp840
a(I161
I59423
tp841
a(I169
I30
tp842
a(I170
I53309
tp843
asI122
(lp844
(I39
I12
tp845
a(I40
I50176
tp846
a(I160
I19
tp847
a(I161
I37600
tp848
a(I169
I34
tp849
a(I170
I9667
tp850
asI123
(lp851
(I39
I12
tp852
a(I40
I50304
tp853
a(I160
I2
tp854
a(I161
I17333
tp855
a(I169
I1
tp856
a(I170
I34665
tp857
asI124
(lp858
(I39
I12
tp859
a(I40
I51200
tp860
a(I160
I3
tp861
a(I161
I28190
tp862
a(I169
I3
tp863
a(I170
I56383
tp864
asI125
(lp865
(I39
I12
tp866
a(I40
I51328
tp867
a(I160
I18
tp868
a(I161
I48971
tp869
a(I169
I32
tp870
a(I170
I32405
tp871
asI126
(lp872
(I39
I12
tp873
a(I40
I52224
tp874
a(I160
I12
tp875
a(I161
I50612
tp876
a(I169
I28
tp877
a(I170
I35691
tp878
asI127
(lp879
(I39
I12
tp880
a(I40
I52352
tp881
a(I160
I29
tp882
a(I161
I5345
tp883
a(I169
I63
tp884
a(I170
I10689
tp885
asI-1
(lp886
(I40
I136
tp887
a(I160
I42
tp888
a(I161
I1409
tp889
a(I169
I17
tp890
a(I170
I39808
tp891
asI-127
(lp892
(I39
I12
tp893
a(I40
I52360
tp894
a(I160
I8
tp895
a(I161
I9436
tp896
a(I169
I21
tp897
a(I170
I18875
tp898
asI-126
(lp899
(I39
I12
tp900
a(I40
I52232
tp901
a(I160
I25
tp902
a(I161
I62857
tp903
a(I169
I54
tp904
a(I170
I60177
tp905
asI-125
(lp906
(I39
I12
tp907
a(I40
I51336
tp908
a(I160
I7
tp909
a(I161
I36726
tp910
a(I169
I10
tp911
a(I170
I7919
tp912
asI-124
(lp913
(I39
I12
tp914
a(I40
I51208
tp915
a(I160
I22
tp916
a(I161
I24099
tp917
a(I169
I41
tp918
a(I170
I48197
tp919
asI-123
(lp920
(I39
I12
tp921
a(I40
I50312
tp922
a(I160
I23
tp923
a(I161
I29576
tp924
a(I169
I43
tp925
a(I170
I59155
tp926
asI-122
(lp927
(I39
I12
tp928
a(I40
I50184
tp929
a(I160
I6
tp930
a(I161
I41693
tp931
a(I169
I8
tp932
a(I170
I17849
tp933
asI-121
(lp934
(I39
I12
tp935
a(I40
I49288
tp936
a(I160
I24
tp937
a(I161
I55330
tp938
a(I169
I52
tp939
a(I170
I45127
tp940
asI-120
(lp941
(I39
I12
tp942
a(I40
I49160
tp943
a(I160
I9
tp944
a(I161
I2423
tp945
a(I169
I23
tp946
a(I170
I4845
tp947
asI-119
(lp948
(I39
I12
tp949
a(I40
I35976
tp950
a(I160
I51
tp951
a(I161
I12287
tp952
a(I169
I35
tp953
a(I170
I53116
tp954
asI-118
(lp955
(I39
I12
tp956
a(I40
I35848
tp957
a(I160
I34
tp958
a(I161
I65194
tp959
a(I169
I0
tp960
a(I170
I28118
tp961
asI-117
(lp962
(I39
I12
tp963
a(I40
I34952
tp964
a(I160
I60
tp965
a(I161
I33877
tp966
a(I169
I60
tp967
a(I170
I38952
tp968
asI-116
(lp969
(I39
I12
tp970
a(I40
I34824
tp971
a(I160
I45
tp972
a(I161
I21760
tp973
a(I169
I31
tp974
a(I170
I14978
tp975
asI-115
(lp976
(I39
I12
tp977
a(I40
I33928
tp978
a(I160
I44
tp979
a(I161
I30891
tp980
a(I169
I29
tp981
a(I170
I25044
tp982
asI-114
(lp983
(I39
I12
tp984
a(I40
I33800
tp985
a(I160
I61
tp986
a(I161
I43518
tp987
a(I169
I62
tp988
a(I170
I50046
tp989
asI-113
(lp990
(I39
I12
tp991
a(I40
I32904
tp992
a(I160
I35
tp993
a(I161
I54017
tp994
a(I169
I2
tp995
a(I170
I13952
tp996
asI-112
(lp997
(I39
I12
tp998
a(I40
I32776
tp999
a(I160
I50
tp1000
a(I161
I596
tp1001
a(I169
I33
tp1002
a(I170
I37930
tp1003
asI-111
(lp1004
(I39
I12
tp1005
a(I40
I19592
tp1006
a(I160
I62
tp1007
a(I161
I41499
tp1008
a(I169
I56
tp1009
a(I170
I54452
tp1010
asI-110
(lp1011
(I39
I12
tp1012
a(I40
I19464
tp1013
a(I160
I47
tp1014
a(I161
I29518
tp1015
a(I169
I27
tp1016
a(I170
I30238
tp1017
asI-109
(lp1018
(I39
I12
tp1019
a(I40
I18568
tp1020
a(I160
I49
tp1021
a(I161
I2481
tp1022
a(I169
I39
tp1023
a(I170
I33760
tp1024
asI-108
(lp1025
(I39
I12
tp1026
a(I40
I18440
tp1027
a(I160
I32
tp1028
a(I161
I55524
tp1029
a(I169
I4
tp1030
a(I170
I8522
tp1031
asI-107
(lp1032
(I39
I12
tp1033
a(I40
I17544
tp1034
a(I160
I33
tp1035
a(I161
I62799
tp1036
a(I169
I6
tp1037
a(I170
I31260
tp1038
asI-106
(lp1039
(I39
I12
tp1040
a(I40
I17416
tp1041
a(I160
I48
tp1042
a(I161
I9242
tp1043
a(I169
I37
tp1044
a(I170
I55478
tp1045
asI-105
(lp1046
(I39
I12
tp1047
a(I40
I16520
tp1048
a(I161
I24293
tp1049
a(I169
I25
tp1050
a(I170
I11592
tp1051
asI-104
(lp1052
(I39
I12
tp1053
a(I40
I16392
tp1054
a(I160
I63
tp1055
a(I161
I36784
tp1056
a(I169
I58
tp1057
a(I170
I36834
tp1058
asI-103
(lp1059
(I39
I12
tp1060
a(I40
I3208
tp1061
a(I160
I5
tp1062
a(I161
I43320
tp1063
a(I169
I14
tp1064
a(I170
I21107
tp1065
asI-102
(lp1066
(I39
I12
tp1067
a(I40
I3080
tp1068
a(I160
I20
tp1069
a(I161
I30829
tp1070
a(I169
I45
tp1071
a(I170
I61657
tp1072
asI-101
(lp1073
(I39
I12
tp1074
a(I40
I2184
tp1075
a(I160
I10
tp1076
a(I161
I658
tp1077
a(I169
I17
tp1078
a(I170
I1319
tp1079
asI-100
(lp1080
(I39
I12
tp1081
a(I40
I2056
tp1082
a(I160
I27
tp1083
a(I161
I54215
tp1084
a(I169
I50
tp1085
a(I170
I42893
tp1086
asI-99
(lp1087
(I39
I12
tp1088
a(I40
I1160
tp1089
a(I160
I26
tp1090
a(I161
I65132
tp1091
a(I169
I48
tp1092
a(I170
I64731
tp1093
asI-98
(lp1094
(I39
I12
tp1095
a(I40
I1032
tp1096
a(I160
I11
tp1097
a(I161
I12089
tp1098
a(I169
I19
tp1099
a(I170
I24177
tp1100
asI-97
(lp1101
(I39
I12
tp1102
a(I40
I136
tp1103
a(I160
I21
tp1104
a(I161
I21958
tp1105
a(I169
I47
tp1106
a(I170
I43919
tp1107
asI-96
(lp1108
(I39
I12
tp1109
a(I40
I8
tp1110
a(I160
I4
tp1111
a(I161
I33939
tp1112
a(I169
I12
tp1113
a(I170
I2341
tp1114
asI-95
(lp1115
(I39
I8
tp1116
a(I40
I52360
tp1117
a(I160
I29
tp1118
a(I161
I5345
tp1119
a(I169
I63
tp1120
a(I170
I10689
tp1121
asI-94
(lp1122
(I39
I8
tp1123
a(I40
I52232
tp1124
a(I160
I12
tp1125
a(I161
I50612
tp1126
a(I169
I28
tp1127
a(I170
I35691
tp1128
asI-93
(lp1129
(I39
I8
tp1130
a(I40
I51336
tp1131
a(I160
I18
tp1132
a(I161
I48971
tp1133
a(I169
I32
tp1134
a(I170
I32405
tp1135
asI-92
(lp1136
(I39
I8
tp1137
a(I40
I51208
tp1138
a(I160
I3
tp1139
a(I161
I28190
tp1140
a(I169
I3
tp1141
a(I170
I56383
tp1142
asI-91
(lp1143
(I39
I8
tp1144
a(I40
I50312
tp1145
a(I160
I2
tp1146
a(I161
I17333
tp1147
a(I169
I1
tp1148
a(I170
I34665
tp1149
asI-90
(lp1150
(I39
I8
tp1151
a(I40
I50184
tp1152
a(I160
I19
tp1153
a(I161
I37600
tp1154
a(I169
I34
tp1155
a(I170
I9667
tp1156
asI-89
(lp1157
(I39
I8
tp1158
a(I40
I49288
tp1159
a(I160
I13
tp1160
a(I161
I59423
tp1161
a(I169
I30
tp1162
a(I170
I53309
tp1163
asI-88
(lp1164
(I39
I8
tp1165
a(I40
I49160
tp1166
a(I160
I28
tp1167
a(I161
I14666
tp1168
a(I169
I61
tp1169
a(I170
I29335
tp1170
asI-87
(lp1171
(I39
I8
tp1172
a(I40
I35976
tp1173
a(I160
I38
tp1174
a(I161
I8130
tp1175
a(I169
I9
tp1176
a(I170
I44806
tp1177
asI-86
(lp1178
(I39
I8
tp1179
a(I40
I35848
tp1180
a(I160
I55
tp1181
a(I161
I52887
tp1182
a(I169
I42
tp1183
a(I170
I3500
tp1184
asI-85
(lp1185
(I39
I8
tp1186
a(I40
I34952
tp1187
a(I160
I41
tp1188
a(I161
I46184
tp1189
a(I169
I22
tp1190
a(I170
I63570
tp1191
asI-84
(lp1192
(I39
I8
tp1193
a(I40
I34824
tp1194
a(I160
I56
tp1195
a(I161
I25917
tp1196
a(I169
I53
tp1197
a(I170
I23288
tp1198
asI-83
(lp1199
(I39
I8
tp1200
a(I40
I33928
tp1201
a(I160
I57
tp1202
a(I161
I18582
tp1203
a(I169
I55
tp1204
a(I170
I430
tp1205
asI-82
(lp1206
(I39
I8
tp1207
a(I40
I33800
tp1208
a(I160
I40
tp1209
a(I161
I39363
tp1210
a(I169
I20
tp1211
a(I170
I41732
tp1212
asI-81
(lp1213
(I39
I8
tp1214
a(I40
I32904
tp1215
a(I160
I54
tp1216
a(I161
I58172
tp1217
a(I169
I40
tp1218
a(I170
I22266
tp1219
asI-80
(lp1220
(I39
I8
tp1221
a(I40
I32776
tp1222
a(I160
I39
tp1223
a(I161
I12905
tp1224
a(I169
I11
tp1225
a(I170
I62544
tp1226
asI-79
(lp1227
(I39
I8
tp1228
a(I40
I19592
tp1229
a(I160
I43
tp1230
a(I161
I37414
tp1231
a(I169
I18
tp1232
a(I170
I46286
tp1233
asI-78
(lp1234
(I39
I8
tp1235
a(I40
I19464
tp1236
a(I160
I58
tp1237
a(I161
I17267
tp1238
a(I169
I49
tp1239
a(I170
I5732
tp1240
asI-77
(lp1241
(I39
I8
tp1242
a(I40
I18568
tp1243
a(I160
I36
tp1244
a(I161
I14732
tp1245
a(I169
I13
tp1246
a(I170
I58266
tp1247
asI-76
(lp1248
(I39
I8
tp1249
a(I40
I18440
tp1250
a(I160
I53
tp1251
a(I161
I59609
tp1252
a(I169
I46
tp1253
a(I170
I16688
tp1254
asI-75
(lp1255
(I39
I8
tp1256
a(I40
I17544
tp1257
a(I160
I52
tp1258
a(I161
I50546
tp1259
a(I169
I44
tp1260
a(I170
I6758
tp1261
asI-74
(lp1262
(I39
I8
tp1263
a(I40
I17416
tp1264
a(I160
I37
tp1265
a(I161
I5159
tp1266
a(I169
I15
tp1267
a(I170
I47308
tp1268
asI-73
(lp1269
(I39
I8
tp1270
a(I40
I16520
tp1271
a(I160
I59
tp1272
a(I161
I28376
tp1273
a(I169
I51
tp1274
a(I170
I19762
tp1275
asI-72
(lp1276
(I39
I8
tp1277
a(I40
I16392
tp1278
a(I160
I42
tp1279
a(I161
I49037
tp1280
a(I169
I16
tp1281
a(I170
I61336
tp1282
asI-71
(lp1283
(I39
I8
tp1284
a(I40
I3208
tp1285
a(I160
I16
tp1286
a(I161
I39173
tp1287
a(I169
I36
tp1288
a(I170
I12809
tp1289
asI-70
(lp1290
(I39
I8
tp1291
a(I40
I3080
tp1292
a(I160
I1
tp1293
a(I161
I18512
tp1294
a(I169
I7
tp1295
a(I170
I37027
tp1296
asI-69
(lp1297
(I39
I8
tp1298
a(I40
I2184
tp1299
a(I160
I31
tp1300
a(I161
I12975
tp1301
a(I169
I59
tp1302
a(I170
I25949
tp1303
asI-68
(lp1304
(I39
I8
tp1305
a(I40
I2056
tp1306
a(I160
I14
tp1307
a(I161
I58362
tp1308
a(I170
I51191
tp1309
asI-67
(lp1310
(I39
I8
tp1311
a(I40
I1160
tp1312
a(I160
I15
tp1313
a(I161
I52817
tp1314
a(I169
I26
tp1315
a(I170
I40097
tp1316
asI-66
(lp1317
(I39
I8
tp1318
a(I40
I1032
tp1319
a(I160
I30
tp1320
a(I161
I7940
tp1321
a(I169
I57
tp1322
a(I170
I15883
tp1323
asI-65
(lp1324
(I39
I8
tp1325
a(I40
I136
tp1326
a(I160
I0
tp1327
a(I161
I26107
tp1328
a(I169
I5
tp1329
a(I170
I52213
tp1330
asI-64
(lp1331
(I39
I8
tp1332
a(I40
I8
tp1333
a(I160
I17
tp1334
a(I161
I46254
tp1335
a(I169
I38
tp1336
a(I170
I26975
tp1337
asI-63
(lp1338
(I39
I4
tp1339
a(I40
I52360
tp1340
a(I160
I34
tp1341
a(I161
I17574
tp1342
a(I169
I1
tp1343
a(I170
I6606
tp1344
asI-62
(lp1345
(I39
I4
tp1346
a(I40
I52232
tp1347
a(I160
I51
tp1348
a(I161
I38387
tp1349
a(I169
I34
tp1350
a(I170
I47972
tp1351
asI-61
(lp1352
(I39
I4
tp1353
a(I40
I51336
tp1354
a(I160
I45
tp1355
a(I161
I61196
tp1356
a(I169
I30
tp1357
a(I170
I20122
tp1358
asI-60
(lp1359
(I39
I4
tp1360
a(I40
I51208
tp1361
a(I160
I60
tp1362
a(I161
I15961
tp1363
a(I169
I61
tp1364
a(I170
I60464
tp1365
asI-59
(lp1366
(I39
I4
tp1367
a(I40
I50312
tp1368
a(I160
I61
tp1369
a(I161
I5106
tp1370
a(I169
I63
tp1371
a(I170
I46950
tp1372
asI-58
(lp1373
(I39
I4
tp1374
a(I40
I50184
tp1375
a(I160
I44
tp1376
a(I161
I49831
tp1377
a(I169
I28
tp1378
a(I170
I5580
tp1379
asI-57
(lp1380
(I39
I4
tp1381
a(I40
I49288
tp1382
a(I160
I50
tp1383
a(I161
I47192
tp1384
a(I169
I32
tp1385
a(I170
I57394
tp1386
asI-56
(lp1387
(I39
I4
tp1388
a(I40
I49160
tp1389
a(I160
I35
tp1390
a(I161
I26893
tp1391
a(I169
I3
tp1392
a(I170
I17048
tp1393
asI-55
(lp1394
(I39
I4
tp1395
a(I40
I35976
tp1396
a(I160
I25
tp1397
a(I161
I20357
tp1398
a(I169
I55
tp1399
a(I170
I40713
tp1400
asI-54
(lp1401
(I39
I4
tp1402
a(I40
I35848
tp1403
a(I160
I8
tp1404
a(I161
I40656
tp1405
a(I169
I20
tp1406
a(I170
I15779
tp1407
asI-53
(lp1408
(I39
I4
tp1409
a(I40
I34952
tp1410
a(I160
I22
tp1411
a(I161
I58415
tp1412
a(I169
I40
tp1413
a(I170
I51293
tp1414
asI-52
(lp1415
(I39
I4
tp1416
a(I40
I34824
tp1417
a(I160
I7
tp1418
a(I161
I13690
tp1419
a(I169
I11
tp1420
a(I170
I27383
tp1421
asI-51
(lp1422
(I39
I4
tp1423
a(I40
I33928
tp1424
a(I160
I6
tp1425
a(I161
I6353
tp1426
a(I169
I9
tp1427
a(I170
I12705
tp1428
asI-50
(lp1429
(I39
I4
tp1430
a(I40
I33800
tp1431
a(I160
I23
tp1432
a(I161
I51588
tp1433
a(I169
I42
tp1434
a(I170
I37643
tp1435
asI-49
(lp1436
(I39
I4
tp1437
a(I40
I32904
tp1438
a(I160
I9
tp1439
a(I161
I45947
tp1440
a(I169
I22
tp1441
a(I170
I26357
tp1442
asI-48
(lp1443
(I39
I4
tp1444
a(I40
I32776
tp1445
a(I160
I24
tp1446
a(I161
I25134
tp1447
a(I169
I53
tp1448
a(I170
I50271
tp1449
asI-47
(lp1450
(I39
I4
tp1451
a(I40
I19592
tp1452
a(I160
I20
tp1453
a(I161
I49761
tp1454
a(I169
I44
tp1455
a(I170
I33985
tp1456
asI-46
(lp1457
(I39
I4
tp1458
a(I40
I19464
tp1459
a(I160
I5
tp1460
a(I161
I4916
tp1461
a(I169
I15
tp1462
a(I170
I9835
tp1463
asI-45
(lp1464
(I39
I4
tp1465
a(I40
I18568
tp1466
a(I160
I27
tp1467
a(I161
I27083
tp1468
a(I169
I51
tp1469
a(I170
I54165
tp1470
asI-44
(lp1471
(I39
I4
tp1472
a(I40
I18440
tp1473
a(I160
I10
tp1474
a(I161
I47262
tp1475
a(I169
I16
tp1476
a(I170
I28991
tp1477
asI-43
(lp1478
(I39
I4
tp1479
a(I40
I17544
tp1480
a(I160
I11
tp1481
a(I161
I38197
tp1482
a(I169
I18
tp1483
a(I170
I10857
tp1484
asI-42
(lp1485
(I39
I4
tp1486
a(I40
I17416
tp1487
a(I160
I26
tp1488
a(I161
I17504
tp1489
a(I169
I49
tp1490
a(I170
I35011
tp1491
asI-41
(lp1492
(I39
I4
tp1493
a(I40
I16520
tp1494
a(I160
I4
tp1495
a(I161
I16031
tp1496
a(I169
I13
tp1497
a(I170
I32061
tp1498
asI-40
(lp1499
(I39
I4
tp1500
a(I40
I16392
tp1501
a(I160
I21
tp1502
a(I161
I61386
tp1503
a(I169
I46
tp1504
a(I170
I57239
tp1505
asI-39
(lp1506
(I39
I4
tp1507
a(I40
I3208
tp1508
a(I160
I47
tp1509
a(I161
I51522
tp1510
a(I169
I26
tp1511
a(I170
I518
tp1512
asI-38
(lp1513
(I39
I4
tp1514
a(I40
I3080
tp1515
a(I160
I62
tp1516
a(I161
I6167
tp1517
a(I169
I57
tp1518
a(I170
I41132
tp1519
asI-37
(lp1520
(I39
I4
tp1521
a(I40
I2184
tp1522
a(I160
I32
tp1523
a(I161
I25320
tp1524
a(I169
I5
tp1525
a(I170
I21842
tp1526
asI-36
(lp1527
(I39
I4
tp1528
a(I40
I2056
tp1529
a(I160
I49
tp1530
a(I161
I46013
tp1531
a(I169
I38
tp1532
a(I170
I63480
tp1533
asI-35
(lp1534
(I39
I4
tp1535
a(I40
I1160
tp1536
a(I160
I48
tp1537
a(I161
I40470
tp1538
a(I169
I36
tp1539
a(I170
I44206
tp1540
asI-34
(lp1541
(I39
I4
tp1542
a(I40
I1032
tp1543
a(I160
I33
tp1544
a(I161
I20291
tp1545
a(I169
I7
tp1546
a(I170
I3588
tp1547
asI-33
(lp1548
(I39
I4
tp1549
a(I40
I136
tp1550
a(I160
I63
tp1551
a(I161
I13756
tp1552
a(I169
I59
tp1553
a(I170
I64506
tp1554
asI-32
(lp1555
(I39
I4
tp1556
a(I40
I8
tp1557
asI-31
(lp1558
(I40
I52360
tp1559
a(I160
I55
tp1560
a(I161
I29851
tp1561
a(I169
I43
tp1562
a(I170
I31156
tp1563
asI-30
(lp1564
(I40
I52232
tp1565
a(I160
I38
tp1566
a(I161
I42446
tp1567
a(I169
I8
tp1568
a(I170
I56094
tp1569
asI-29
(lp1570
(I40
I51336
tp1571
a(I160
I56
tp1572
a(I161
I57137
tp1573
a(I169
I52
tp1574
a(I170
I12000
tp1575
asI-28
(lp1576
(I40
I51208
tp1577
a(I160
I41
tp1578
a(I161
I3684
tp1579
a(I169
I23
tp1580
a(I170
I35914
tp1581
asI-27
(lp1582
(I40
I50312
tp1583
a(I160
I40
tp1584
a(I161
I9167
tp1585
a(I169
I21
tp1586
a(I170
I55068
tp1587
asI-26
(lp1588
(I40
I50184
tp1589
a(I160
I57
tp1590
a(I161
I62106
tp1591
a(I169
I54
tp1592
a(I170
I30134
tp1593
asI-25
(lp1594
(I40
I49288
tp1595
a(I160
I39
tp1596
a(I161
I34917
tp1597
a(I169
I10
tp1598
a(I170
I32840
tp1599
asI-24
(lp1600
(I40
I49160
tp1601
a(I160
I54
tp1602
a(I161
I22832
tp1603
a(I169
I41
tp1604
a(I170
I8930
tp1605
asI-23
(lp1606
(I40
I35976
tp1607
a(I160
I12
tp1608
a(I161
I32696
tp1609
a(I169
I29
tp1610
a(I170
I65395
tp1611
asI-22
(lp1612
(I40
I35848
tp1613
a(I160
I29
tp1614
a(I161
I44781
tp1615
a(I169
I62
tp1616
a(I170
I24025
tp1617
asI-21
(lp1618
(I40
I34952
tp1619
a(I160
I3
tp1620
a(I161
I54290
tp1621
a(I169
I2
tp1622
a(I170
I43047
tp1623
asI-20
(lp1624
(I40
I34824
tp1625
a(I160
I18
tp1626
a(I161
I1351
tp1627
a(I169
I33
tp1628
a(I170
I2701
tp1629
asI-19
(lp1630
(I40
I33928
tp1631
a(I160
I19
tp1632
a(I161
I10476
tp1633
a(I169
I35
tp1634
a(I170
I20955
tp1635
asI-18
(lp1636
(I40
I33800
tp1637
a(I160
I2
tp1638
a(I161
I63929
tp1639
a(I169
I0
tp1640
a(I170
I62321
tp1641
asI-17
(lp1642
(I40
I32904
tp1643
a(I160
I28
tp1644
a(I161
I33606
tp1645
a(I169
I60
tp1646
a(I170
I1679
tp1647
asI-16
(lp1648
(I40
I32776
tp1649
a(I160
I13
tp1650
a(I161
I21011
tp1651
a(I169
I31
tp1652
a(I170
I42021
tp1653
asI-15
(lp1654
(I40
I19592
tp1655
a(I160
I1
tp1656
a(I161
I62044
tp1657
a(I169
I6
tp1658
a(I170
I58555
tp1659
asI-14
(lp1660
(I40
I19464
tp1661
a(I160
I16
tp1662
a(I161
I8969
tp1663
a(I169
I37
tp1664
a(I170
I17937
tp1665
asI-13
(lp1666
(I40
I18568
tp1667
a(I160
I14
tp1668
a(I161
I23030
tp1669
a(I169
I25
tp1670
a(I170
I46063
tp1671
asI-12
(lp1672
(I40
I18440
tp1673
a(I160
I31
tp1674
a(I161
I34979
tp1675
a(I169
I58
tp1676
a(I170
I4421
tp1677
asI-11
(lp1678
(I40
I17544
tp1679
a(I160
I30
tp1680
a(I161
I42248
tp1681
a(I169
I56
tp1682
a(I170
I18963
tp1683
asI-10
(lp1684
(I40
I17416
tp1685
a(I160
I15
tp1686
a(I161
I29789
tp1687
a(I169
I27
tp1688
a(I170
I59577
tp1689
asI-9
(lp1690
(I40
I16520
tp1691
a(I160
I17
tp1692
a(I161
I3746
tp1693
a(I169
I39
tp1694
a(I170
I7495
tp1695
asI-8
(lp1696
(I40
I16392
tp1697
a(I160
I0
tp1698
a(I161
I57335
tp1699
a(I169
I4
tp1700
a(I170
I49133
tp1701
asI-7
(lp1702
(I40
I3208
tp1703
a(I160
I58
tp1704
a(I161
I63871
tp1705
a(I169
I48
tp1706
a(I170
I25212
tp1707
asI-6
(lp1708
(I40
I3080
tp1709
a(I160
I43
tp1710
a(I161
I10282
tp1711
a(I169
I19
tp1712
a(I170
I49366
tp1713
asI-5
(lp1714
(I40
I2184
tp1715
a(I160
I53
tp1716
a(I161
I21205
tp1717
a(I169
I47
tp1718
a(I170
I13608
tp1719
asI-4
(lp1720
(I40
I2056
tp1721
a(I160
I36
tp1722
a(I161
I33664
tp1723
a(I169
I12
tp1724
a(I170
I38786
tp1725
asI-3
(lp1726
(I40
I1160
tp1727
a(I160
I37
tp1728
a(I161
I44587
tp1729
a(I169
I14
tp1730
a(I170
I52436
tp1731
asI-2
(lp1732
(I40
I1032
tp1733
a(I160
I52
tp1734
a(I161
I32638
tp1735
a(I169
I45
tp1736
a(I170
I28286
tp1737
assS'location'
p1738
S'reg_clockglitch/gc/DCM_extclock_gen'
p1739
sS'base'
p1740
(lp1741
I65535
aI65535
aI65535
aI65535
aI65535
aI65535
aI65535
aI65535
aI43673
aI21862
aI12449
aI7
aI8192
aI12705
aI1160
aI12738
aI1024
aI16531
aI12609
aI15616
aI12641
aI2542
aI12322
aI787
aI30
aI12449
aI1
aI20576
aI0
aI130
aI0
aI0
aI0
aI0
aI0
aI0
aI0
aI0
aI0
aI0
aI0
aI32768
aI4096
aI0
aI0
aI323
aI1
aI27833
aI16896
aI51656
aI8706
aI24
aI43536
aI6144
aI88
aI18739
aI24576
aI53772
aI0
aI0
aI0
aI0
aI0
aI0
aI0
aI0
aI0
aI52356
aI4353
aI1280
aI2454
aI2586
aI4516
aI23040
aI4096
aI4112
aI0
aI49216
aI34944
aI512
aI4
aI1024
aI22
aI6144
aI0
aI0
aI0
aI0
aI16384
aI2057
aI36864
aI0
aI0
aI0
aI0
aI65535
aI65535
aI65535
aI65535
aI65535
aI65535
aI65535
aI65535
aI65535
aI65535
aI65535
aI65535
aI65535
aI65535
aI65535
aI65535
aI65535
aI65535
aI65535
aI65535
aI65535
aI65535
aI65535
aI65535
aI65535
aI65535
aI65535
aI65535
aI65535
aI65535
aI65535
aI65535
aI65535
aI65535
aI65535
aI65535
aI65535
aI65535
aI65535
aI65535
aI65535
aI65535
aI65535
aI65535
aI65535
aI65535
aI65535
aI65535
aI65535
aI65535
aI65535
aI65535
aI65535
aI65535
aI65535
aI65535
aI65535
aI65535
aI65535
aI65535
aI65535
aI65535
aI65535
aI65535
aI65535
aI46
aI58601
aI12449
aI3
aI8192
aI8192
aI8192
aI8192
aI12290
aI24
aI22864
aI12449
aI13
aI8192
aI8192
aI8192
aI8192
aI8192
aI8192
aI8192
aI8192
aI8192
aI8192
aI8192
aI8192
aI8192
aI8192
aI8192
aI8192
asS'crc32'
p1742
I0
sS'desc'
p1743
S'Glitch Offset'
p1744
s.