(dp0
S'part'
p1
S'6slx25ftg256'
p2
sS'values'
p3
(dp4
I0
(lp5
(I22
I12449
tp6
a(I23
I3
tp7
a(I24
I8192
tp8
a(I25
I8192
tp9
a(I26
I8192
tp10
a(I27
I8192
tp11
a(I28
I12290
tp12
a(I29
I11
tp13
a(I30
I28739
tp14
a(I31
I12449
tp15
a(I32
I13
tp16
a(I33
I8192
tp17
a(I34
I8192
tp18
a(I35
I8192
tp19
a(I36
I8192
tp20
a(I37
I8192
tp21
a(I38
I8192
tp22
a(I39
I8192
tp23
a(I40
I8192
tp24
a(I41
I8192
tp25
a(I42
I8192
tp26
a(I43
I8192
tp27
a(I44
I8192
tp28
a(I45
I8192
tp29
a(I46
I8192
tp30
a(I47
I8192
tp31
a(I48
I8192
tp32
asI1
(lp33
(I40
I128
tp34
a(I160
I59
tp35
a(I161
I21188
tp36
a(I169
I51
tp37
a(I170
I13578
tp38
asI2
(lp39
(I40
I1024
tp40
a(I160
I37
tp41
a(I161
I10299
tp42
a(I169
I15
tp43
a(I170
I49396
tp44
asI3
(lp45
(I40
I1152
tp46
a(I160
I52
tp47
a(I161
I63854
tp48
a(I169
I44
tp49
a(I170
I25182
tp50
asI4
(lp51
(I40
I2048
tp52
a(I160
I53
tp53
a(I161
I54469
tp54
a(I169
I46
tp55
a(I170
I14600
tp56
asI5
(lp57
(I40
I2176
tp58
a(I160
I36
tp59
a(I161
I1424
tp60
a(I169
I13
tp61
a(I170
I39842
tp62
asI6
(lp63
(I40
I3072
tp64
a(I160
I58
tp65
a(I161
I32623
tp66
a(I169
I49
tp67
a(I170
I28252
tp68
asI7
(lp69
(I40
I3200
tp70
a(I160
I43
tp71
a(I161
I44602
tp72
a(I169
I18
tp73
a(I170
I52470
tp74
asI8
(lp75
(I40
I16384
tp76
a(I160
I17
tp77
a(I161
I34994
tp78
a(I169
I38
tp79
a(I170
I4455
tp80
asI9
(lp81
(I40
I16512
tp82
a(I160
I0
tp83
a(I161
I23015
tp84
a(I169
I5
tp85
a(I170
I46029
tp86
asI10
(lp87
(I40
I17408
tp88
a(I160
I30
tp89
a(I161
I8984
tp90
a(I169
I57
tp91
a(I170
I17971
tp92
asI11
(lp93
(I40
I17536
tp94
a(I160
I15
tp95
a(I161
I62029
tp96
a(I169
I26
tp97
a(I170
I58521
tp98
asI12
(lp99
(I40
I18432
tp100
a(I160
I14
tp101
a(I161
I57318
tp102
a(I169
I24
tp103
a(I170
I49103
tp104
asI13
(lp105
(I40
I18560
tp106
a(I160
I31
tp107
a(I161
I3763
tp108
a(I169
I59
tp109
a(I170
I7525
tp110
asI14
(lp111
(I40
I19456
tp112
a(I160
I1
tp113
a(I161
I29772
tp114
a(I169
I7
tp115
a(I170
I59547
tp116
asI15
(lp117
(I40
I19584
tp118
a(I160
I16
tp119
a(I161
I42265
tp120
a(I169
I36
tp121
a(I170
I18993
tp122
asI16
(lp123
(I40
I32768
tp124
a(I160
I28
tp125
a(I161
I1366
tp126
a(I169
I61
tp127
a(I170
I2735
tp128
asI17
(lp129
(I40
I32896
tp130
a(I160
I13
tp131
a(I161
I54275
tp132
a(I169
I30
tp133
a(I170
I43013
tp134
asI18
(lp135
(I40
I33792
tp136
a(I160
I19
tp137
a(I161
I44796
tp138
a(I169
I34
tp139
a(I170
I24059
tp140
asI19
(lp141
(I40
I33920
tp142
a(I160
I2
tp143
a(I161
I32681
tp144
a(I169
I1
tp145
a(I170
I65361
tp146
asI20
(lp147
(I40
I34816
tp148
a(I160
I3
tp149
a(I161
I20994
tp150
a(I169
I3
tp151
a(I170
I41991
tp152
asI21
(lp153
(I40
I34944
tp154
a(I160
I18
tp155
a(I161
I33623
tp156
a(I169
I32
tp157
a(I170
I1709
tp158
asI22
(lp159
(I40
I35840
tp160
a(I160
I12
tp161
a(I161
I63912
tp162
a(I169
I28
tp163
a(I170
I62291
tp164
asI23
(lp165
(I40
I35968
tp166
a(I160
I29
tp167
a(I161
I10493
tp168
a(I169
I63
tp169
a(I170
I20985
tp170
asI24
(lp171
(I40
I49152
tp172
a(I160
I39
tp173
a(I161
I3701
tp174
a(I169
I11
tp175
a(I170
I35944
tp176
asI25
(lp177
(I40
I49280
tp178
a(I160
I54
tp179
a(I161
I57120
tp180
a(I169
I40
tp181
a(I170
I11970
tp182
asI26
(lp183
(I40
I50176
tp184
a(I160
I40
tp185
a(I161
I42463
tp186
a(I169
I20
tp187
a(I170
I56124
tp188
asI27
(lp189
(I40
I50304
tp190
a(I160
I57
tp191
a(I161
I29834
tp192
a(I169
I55
tp193
a(I170
I31126
tp194
asI28
(lp195
(I40
I51200
tp196
a(I160
I56
tp197
a(I161
I22817
tp198
a(I169
I53
tp199
a(I170
I8896
tp200
asI29
(lp201
(I40
I51328
tp202
a(I160
I41
tp203
a(I161
I34932
tp204
a(I169
I22
tp205
a(I170
I32874
tp206
asI30
(lp207
(I40
I52224
tp208
a(I160
I55
tp209
a(I161
I62091
tp210
a(I169
I42
tp211
a(I170
I30100
tp212
asI31
(lp213
(I40
I52352
tp214
a(I160
I38
tp215
a(I161
I9182
tp216
a(I169
I9
tp217
a(I170
I55102
tp218
asI32
(lp219
(I39
I4
tp220
a(I160
I63
tp221
a(I161
I45996
tp222
a(I169
I58
tp223
a(I170
I63450
tp224
asI33
(lp225
(I39
I4
tp226
a(I40
I128
tp227
a(I160
I46
tp228
a(I161
I25337
tp229
a(I169
I25
tp230
a(I170
I21872
tp231
asI34
(lp232
(I39
I4
tp233
a(I40
I1024
tp234
a(I160
I48
tp235
a(I161
I6150
tp236
a(I169
I37
tp237
a(I170
I41102
tp238
asI35
(lp239
(I39
I4
tp240
a(I40
I1152
tp241
a(I160
I33
tp242
a(I161
I51539
tp243
a(I169
I6
tp244
a(I170
I548
tp245
asI36
(lp246
(I39
I4
tp247
a(I40
I2048
tp248
a(I160
I32
tp249
a(I161
I58616
tp250
a(I169
I4
tp251
a(I170
I22898
tp252
asI37
(lp253
(I39
I4
tp254
a(I40
I2176
tp255
a(I160
I49
tp256
a(I161
I13741
tp257
a(I169
I39
tp258
a(I170
I64472
tp259
asI38
(lp260
(I39
I4
tp261
a(I40
I3072
tp262
a(I160
I47
tp263
a(I161
I20306
tp264
a(I169
I27
tp265
a(I170
I3622
tp266
asI39
(lp267
(I39
I4
tp268
a(I40
I3200
tp269
a(I160
I62
tp270
a(I161
I40455
tp271
a(I169
I56
tp272
a(I170
I44172
tp273
asI40
(lp274
(I39
I4
tp275
a(I40
I16384
tp276
a(I160
I4
tp277
a(I161
I47247
tp278
a(I169
I12
tp279
a(I170
I28957
tp280
asI41
(lp281
(I39
I4
tp282
a(I40
I16512
tp283
a(I160
I21
tp284
a(I161
I27098
tp285
a(I169
I47
tp286
a(I170
I54199
tp287
asI42
(lp288
(I39
I4
tp289
a(I40
I17408
tp290
a(I160
I11
tp291
a(I161
I4901
tp292
a(I169
I19
tp293
a(I170
I9801
tp294
asI43
(lp295
(I39
I4
tp296
a(I40
I17536
tp297
a(I160
I26
tp298
a(I161
I49776
tp299
a(I169
I48
tp300
a(I170
I34019
tp301
asI44
(lp302
(I39
I4
tp303
a(I40
I18432
tp304
a(I160
I27
tp305
a(I161
I61403
tp306
a(I169
I50
tp307
a(I170
I57269
tp308
asI45
(lp309
(I39
I4
tp310
a(I40
I18560
tp311
a(I160
I10
tp312
a(I161
I16014
tp313
a(I169
I17
tp314
a(I170
I32031
tp315
asI46
(lp316
(I39
I4
tp317
a(I40
I19456
tp318
a(I160
I20
tp319
a(I161
I17521
tp320
a(I169
I45
tp321
a(I170
I35041
tp322
asI47
(lp323
(I39
I4
tp324
a(I40
I19584
tp325
a(I160
I5
tp326
a(I161
I38180
tp327
a(I169
I14
tp328
a(I170
I10827
tp329
asI48
(lp330
(I39
I4
tp331
a(I40
I32768
tp332
a(I160
I9
tp333
a(I161
I13675
tp334
a(I169
I23
tp335
a(I170
I27349
tp336
asI49
(lp337
(I39
I4
tp338
a(I40
I32896
tp339
a(I160
I24
tp340
a(I161
I58430
tp341
a(I169
I52
tp342
a(I170
I51327
tp343
asI50
(lp344
(I39
I4
tp345
a(I40
I33792
tp346
a(I160
I6
tp347
a(I161
I40641
tp348
a(I169
I8
tp349
a(I170
I15745
tp350
asI51
(lp351
(I39
I4
tp352
a(I40
I33920
tp353
a(I160
I23
tp354
a(I161
I20372
tp355
a(I169
I43
tp356
a(I170
I40747
tp357
asI52
(lp358
(I39
I4
tp359
a(I40
I34816
tp360
a(I160
I22
tp361
a(I161
I25151
tp362
a(I169
I41
tp363
a(I170
I50301
tp364
asI53
(lp365
(I39
I4
tp366
a(I40
I34944
tp367
a(I160
I7
tp368
a(I161
I45930
tp369
a(I169
I10
tp370
a(I170
I26327
tp371
asI54
(lp372
(I39
I4
tp373
a(I40
I35840
tp374
a(I160
I25
tp375
a(I161
I51605
tp376
a(I169
I54
tp377
a(I170
I37673
tp378
asI55
(lp379
(I39
I4
tp380
a(I40
I35968
tp381
a(I160
I8
tp382
a(I161
I6336
tp383
a(I169
I21
tp384
a(I170
I12675
tp385
asI56
(lp386
(I39
I4
tp387
a(I40
I49152
tp388
a(I160
I50
tp389
a(I161
I15944
tp390
a(I169
I33
tp391
a(I170
I60434
tp392
asI57
(lp393
(I39
I4
tp394
a(I40
I49280
tp395
a(I160
I35
tp396
a(I161
I61213
tp397
a(I169
I2
tp398
a(I170
I20152
tp399
asI58
(lp400
(I39
I4
tp401
a(I40
I50176
tp402
a(I160
I61
tp403
a(I161
I38370
tp404
a(I169
I62
tp405
a(I170
I47942
tp406
asI59
(lp407
(I39
I4
tp408
a(I40
I50304
tp409
a(I160
I44
tp410
a(I161
I17591
tp411
a(I169
I29
tp412
a(I170
I6636
tp413
asI60
(lp414
(I39
I4
tp415
a(I40
I51200
tp416
a(I160
I45
tp417
a(I161
I26908
tp418
a(I169
I31
tp419
a(I170
I17082
tp420
asI61
(lp421
(I39
I4
tp422
a(I40
I51328
tp423
a(I160
I60
tp424
a(I161
I47177
tp425
a(I169
I60
tp426
a(I170
I57360
tp427
asI62
(lp428
(I39
I4
tp429
a(I40
I52224
tp430
a(I160
I34
tp431
a(I161
I49846
tp432
a(I169
I0
tp433
a(I170
I5614
tp434
asI63
(lp435
(I39
I4
tp436
a(I40
I52352
tp437
a(I160
I51
tp438
a(I161
I5091
tp439
a(I169
I35
tp440
a(I170
I46916
tp441
asI64
(lp442
(I39
I8
tp443
a(I160
I0
tp444
a(I161
I58347
tp445
a(I169
I4
tp446
a(I170
I51157
tp447
asI65
(lp448
(I39
I8
tp449
a(I40
I128
tp450
a(I160
I17
tp451
a(I161
I12990
tp452
a(I169
I39
tp453
a(I170
I25983
tp454
asI66
(lp455
(I39
I8
tp456
a(I40
I1024
tp457
a(I160
I15
tp458
a(I161
I18497
tp459
a(I169
I27
tp460
a(I170
I36993
tp461
asI67
(lp462
(I39
I8
tp463
a(I40
I1152
tp464
a(I160
I30
tp465
a(I161
I39188
tp466
a(I169
I56
tp467
a(I170
I12843
tp468
asI68
(lp469
(I39
I8
tp470
a(I40
I2048
tp471
a(I160
I31
tp472
a(I161
I46271
tp473
a(I169
I58
tp474
a(I170
I27005
tp475
asI69
(lp476
(I39
I8
tp477
a(I40
I2176
tp478
a(I160
I14
tp479
a(I161
I26090
tp480
a(I169
I25
tp481
a(I170
I52183
tp482
asI70
(lp483
(I39
I8
tp484
a(I40
I3072
tp485
a(I160
I16
tp486
a(I161
I7957
tp487
a(I169
I37
tp488
a(I170
I15913
tp489
asI71
(lp490
(I39
I8
tp491
a(I40
I3200
tp492
a(I160
I1
tp493
a(I161
I52800
tp494
a(I169
I6
tp495
a(I170
I40067
tp496
asI72
(lp497
(I39
I8
tp498
a(I40
I16384
tp499
a(I160
I59
tp500
a(I161
I59592
tp501
a(I169
I50
tp502
a(I170
I16658
tp503
asI73
(lp504
(I39
I8
tp505
a(I40
I16512
tp506
a(I161
I14749
tp507
a(I169
I17
tp508
a(I170
I58296
tp509
asI74
(lp510
(I39
I8
tp511
a(I40
I17408
tp512
a(I160
I52
tp513
a(I161
I17250
tp514
a(I169
I45
tp515
a(I170
I5702
tp516
asI75
(lp517
(I39
I8
tp518
a(I40
I17536
tp519
a(I160
I37
tp520
a(I161
I37431
tp521
a(I169
I14
tp522
a(I170
I46316
tp523
asI76
(lp524
(I39
I8
tp525
a(I40
I18432
tp526
a(I160
I36
tp527
a(I161
I49052
tp528
a(I169
I12
tp529
a(I170
I61370
tp530
asI77
(lp531
(I39
I8
tp532
a(I40
I18560
tp533
a(I160
I53
tp534
a(I161
I28361
tp535
a(I169
I47
tp536
a(I170
I19728
tp537
asI78
(lp538
(I39
I8
tp539
a(I40
I19456
tp540
a(I160
I43
tp541
a(I161
I5174
tp542
a(I169
I19
tp543
a(I170
I47342
tp544
asI79
(lp545
(I39
I8
tp546
a(I40
I19584
tp547
a(I160
I58
tp548
a(I161
I50531
tp549
a(I169
I48
tp550
a(I170
I6724
tp551
asI80
(lp552
(I39
I8
tp553
a(I40
I32768
tp554
a(I160
I54
tp555
a(I161
I25900
tp556
a(I169
I41
tp557
a(I170
I23258
tp558
asI81
(lp559
(I39
I8
tp560
a(I40
I32896
tp561
a(I160
I39
tp562
a(I161
I46201
tp563
a(I169
I10
tp564
a(I170
I63600
tp565
asI82
(lp566
(I39
I8
tp567
a(I40
I33792
tp568
a(I160
I57
tp569
a(I161
I52870
tp570
a(I169
I54
tp571
a(I170
I3470
tp572
asI83
(lp573
(I39
I8
tp574
a(I40
I33920
tp575
a(I160
I40
tp576
a(I161
I8147
tp577
a(I169
I21
tp578
a(I170
I44836
tp579
asI84
(lp580
(I39
I8
tp581
a(I40
I34816
tp582
a(I160
I41
tp583
a(I161
I12920
tp584
a(I169
I23
tp585
a(I170
I62578
tp586
asI85
(lp587
(I39
I8
tp588
a(I40
I34944
tp589
a(I160
I56
tp590
a(I161
I58157
tp591
a(I169
I52
tp592
a(I170
I22232
tp593
asI86
(lp594
(I39
I8
tp595
a(I40
I35840
tp596
a(I160
I38
tp597
a(I161
I39378
tp598
a(I169
I8
tp599
a(I170
I41766
tp600
asI87
(lp601
(I39
I8
tp602
a(I40
I35968
tp603
a(I160
I55
tp604
a(I161
I18567
tp605
a(I169
I43
tp606
a(I170
I396
tp607
asI88
(lp608
(I39
I8
tp609
a(I40
I49152
tp610
a(I160
I13
tp611
a(I161
I28175
tp612
a(I169
I31
tp613
a(I170
I56349
tp614
asI89
(lp615
(I39
I8
tp616
a(I40
I49280
tp617
a(I160
I28
tp618
a(I161
I48986
tp619
a(I169
I60
tp620
a(I170
I32439
tp621
asI90
(lp622
(I39
I8
tp623
a(I40
I50176
tp624
a(I160
I2
tp625
a(I161
I50597
tp626
a(I169
I0
tp627
a(I170
I35657
tp628
asI91
(lp629
(I39
I8
tp630
a(I40
I50304
tp631
a(I160
I19
tp632
a(I161
I5360
tp633
a(I169
I35
tp634
a(I170
I10723
tp635
asI92
(lp636
(I39
I8
tp637
a(I40
I51200
tp638
a(I160
I18
tp639
a(I161
I14683
tp640
a(I169
I33
tp641
a(I170
I29365
tp642
asI93
(lp643
(I39
I8
tp644
a(I40
I51328
tp645
a(I160
I3
tp646
a(I161
I59406
tp647
a(I169
I2
tp648
a(I170
I53279
tp649
asI94
(lp650
(I39
I8
tp651
a(I40
I52224
tp652
a(I160
I29
tp653
a(I161
I37617
tp654
a(I169
I62
tp655
a(I170
I9697
tp656
asI95
(lp657
(I39
I8
tp658
a(I40
I52352
tp659
a(I160
I12
tp660
a(I161
I17316
tp661
a(I169
I29
tp662
a(I170
I34635
tp663
asI96
(lp664
(I39
I12
tp665
a(I160
I21
tp666
a(I161
I54230
tp667
a(I169
I46
tp668
a(I170
I42927
tp669
asI97
(lp670
(I39
I12
tp671
a(I40
I128
tp672
a(I160
I4
tp673
a(I161
I643
tp674
a(I169
I13
tp675
a(I170
I1285
tp676
asI98
(lp677
(I39
I12
tp678
a(I40
I1024
tp679
a(I160
I26
tp680
a(I161
I30844
tp681
a(I169
I49
tp682
a(I170
I61691
tp683
asI99
(lp684
(I39
I12
tp685
a(I40
I1152
tp686
a(I160
I11
tp687
a(I161
I43305
tp688
a(I169
I18
tp689
a(I170
I21073
tp690
asI100
(lp691
(I39
I12
tp692
a(I40
I2048
tp693
a(I160
I10
tp694
a(I161
I33922
tp695
a(I170
I2311
tp696
asI101
(lp697
(I39
I12
tp698
a(I40
I2176
tp699
a(I160
I27
tp700
a(I161
I21975
tp701
a(I169
I51
tp702
a(I170
I43949
tp703
asI102
(lp704
(I39
I12
tp705
a(I40
I3072
tp706
a(I160
I5
tp707
a(I161
I12072
tp708
a(I169
I15
tp709
a(I170
I24147
tp710
asI103
(lp711
(I39
I12
tp712
a(I40
I3200
tp713
a(I160
I20
tp714
a(I161
I65149
tp715
a(I169
I44
tp716
a(I170
I64761
tp717
asI104
(lp718
(I39
I12
tp719
a(I40
I16384
tp720
a(I160
I46
tp721
a(I161
I55541
tp722
a(I169
I24
tp723
a(I170
I8552
tp724
asI105
(lp725
(I39
I12
tp726
a(I40
I16512
tp727
a(I160
I63
tp728
a(I161
I2464
tp729
a(I169
I59
tp730
a(I170
I33730
tp731
asI106
(lp732
(I39
I12
tp733
a(I40
I17408
tp734
a(I160
I33
tp735
a(I161
I29535
tp736
a(I169
I7
tp737
a(I170
I30268
tp738
asI107
(lp739
(I39
I12
tp740
a(I40
I17536
tp741
a(I160
I48
tp742
a(I161
I41482
tp743
a(I169
I36
tp744
a(I170
I54422
tp745
asI108
(lp746
(I39
I12
tp747
a(I40
I18432
tp748
a(I160
I49
tp749
a(I161
I36769
tp750
a(I169
I38
tp751
a(I170
I36800
tp752
asI109
(lp753
(I39
I12
tp754
a(I40
I18560
tp755
a(I160
I32
tp756
a(I161
I24308
tp757
a(I169
I5
tp758
a(I170
I11626
tp759
asI110
(lp760
(I39
I12
tp761
a(I40
I19456
tp762
a(I160
I62
tp763
a(I161
I9227
tp764
a(I169
I57
tp765
a(I170
I55444
tp766
asI111
(lp767
(I39
I12
tp768
a(I40
I19584
tp769
a(I160
I47
tp770
a(I161
I62814
tp771
a(I169
I26
tp772
a(I170
I31294
tp773
asI112
(lp774
(I39
I12
tp775
a(I40
I32768
tp776
a(I160
I35
tp777
a(I161
I21777
tp778
a(I169
I3
tp779
a(I170
I15008
tp780
asI113
(lp781
(I39
I12
tp782
a(I40
I32896
tp783
a(I160
I50
tp784
a(I161
I33860
tp785
a(I169
I32
tp786
a(I170
I38922
tp787
asI114
(lp788
(I39
I12
tp789
a(I40
I33792
tp790
a(I160
I44
tp791
a(I161
I65211
tp792
a(I169
I28
tp793
a(I170
I28148
tp794
asI115
(lp795
(I39
I12
tp796
a(I40
I33920
tp797
a(I160
I61
tp798
a(I161
I12270
tp799
a(I169
I63
tp800
a(I170
I53086
tp801
asI116
(lp802
(I39
I12
tp803
a(I40
I34816
tp804
a(I160
I60
tp805
a(I161
I581
tp806
a(I169
I61
tp807
a(I170
I37896
tp808
asI117
(lp809
(I39
I12
tp810
a(I40
I34944
tp811
a(I160
I45
tp812
a(I161
I54032
tp813
a(I169
I30
tp814
a(I170
I13986
tp815
asI118
(lp816
(I39
I12
tp817
a(I40
I35840
tp818
a(I160
I51
tp819
a(I161
I43503
tp820
a(I169
I34
tp821
a(I170
I50012
tp822
asI119
(lp823
(I39
I12
tp824
a(I40
I35968
tp825
a(I160
I34
tp826
a(I161
I30906
tp827
a(I169
I1
tp828
a(I170
I25078
tp829
asI120
(lp830
(I39
I12
tp831
a(I40
I49152
tp832
a(I160
I24
tp833
a(I161
I24114
tp834
a(I169
I53
tp835
a(I170
I48231
tp836
asI121
(lp837
(I39
I12
tp838
a(I40
I49280
tp839
a(I160
I9
tp840
a(I161
I36711
tp841
a(I169
I22
tp842
a(I170
I7885
tp843
asI122
(lp844
(I39
I12
tp845
a(I40
I50176
tp846
a(I160
I23
tp847
a(I161
I62872
tp848
a(I169
I42
tp849
a(I170
I60211
tp850
asI123
(lp851
(I39
I12
tp852
a(I40
I50304
tp853
a(I160
I6
tp854
a(I161
I9421
tp855
a(I169
I9
tp856
a(I170
I18841
tp857
asI124
(lp858
(I39
I12
tp859
a(I40
I51200
tp860
a(I160
I7
tp861
a(I161
I2406
tp862
a(I169
I11
tp863
a(I170
I4815
tp864
asI125
(lp865
(I39
I12
tp866
a(I40
I51328
tp867
a(I160
I22
tp868
a(I161
I55347
tp869
a(I169
I40
tp870
a(I170
I45157
tp871
asI126
(lp872
(I39
I12
tp873
a(I40
I52224
tp874
a(I160
I8
tp875
a(I161
I41676
tp876
a(I169
I20
tp877
a(I170
I17819
tp878
asI127
(lp879
(I39
I12
tp880
a(I40
I52352
tp881
a(I160
I25
tp882
a(I161
I29593
tp883
a(I169
I55
tp884
a(I170
I59185
tp885
asI128
(lp886
(I39
I12
tp887
a(I40
I52424
tp888
a(I160
I36
tp889
a(I161
I58190
tp890
a(I169
I12
tp891
a(I170
I22046
tp892
asI129
(lp893
(I39
I12
tp894
a(I40
I52296
tp895
a(I160
I53
tp896
a(I161
I12827
tp897
a(I169
I47
tp898
a(I170
I62644
tp899
asI130
(lp900
(I39
I12
tp901
a(I40
I51400
tp902
a(I160
I43
tp903
a(I161
I18660
tp904
a(I169
I19
tp905
a(I170
I330
tp906
asI131
(lp907
(I39
I12
tp908
a(I40
I51272
tp909
a(I160
I58
tp910
a(I161
I39345
tp911
a(I169
I48
tp912
a(I170
I41952
tp913
asI132
(lp914
(I39
I12
tp915
a(I40
I50376
tp916
a(I160
I59
tp917
a(I161
I46106
tp918
a(I169
I50
tp919
a(I170
I63670
tp920
asI133
(lp921
(I39
I12
tp922
a(I40
I50248
tp923
a(I161
I25935
tp924
a(I169
I17
tp925
a(I170
I23068
tp926
asI134
(lp927
(I39
I12
tp928
a(I40
I49352
tp929
a(I160
I52
tp930
a(I161
I8112
tp931
a(I169
I45
tp932
a(I170
I45026
tp933
asI135
(lp934
(I39
I12
tp935
a(I40
I49224
tp936
a(I160
I37
tp937
a(I161
I52965
tp938
a(I169
I14
tp939
a(I170
I3400
tp940
asI136
(lp941
(I39
I12
tp942
a(I40
I36040
tp943
a(I160
I31
tp944
a(I161
I59501
tp945
a(I169
I58
tp946
a(I170
I53465
tp947
asI137
(lp948
(I39
I12
tp949
a(I40
I35912
tp950
a(I160
I14
tp951
a(I161
I14648
tp952
a(I169
I25
tp953
a(I170
I29299
tp954
asI138
(lp955
(I39
I12
tp956
a(I40
I35016
tp957
a(I160
I16
tp958
a(I161
I17351
tp959
a(I169
I37
tp960
a(I170
I34701
tp961
asI139
(lp962
(I39
I12
tp963
a(I40
I34888
tp964
a(I160
I1
tp965
a(I161
I37522
tp966
a(I169
I6
tp967
a(I170
I9511
tp968
asI140
(lp969
(I39
I12
tp970
a(I40
I33992
tp971
a(I160
I0
tp972
a(I161
I48953
tp973
a(I169
I4
tp974
a(I170
I32369
tp975
asI141
(lp976
(I39
I12
tp977
a(I40
I33864
tp978
a(I160
I17
tp979
a(I161
I28268
tp980
a(I169
I39
tp981
a(I170
I56539
tp982
asI142
(lp983
(I39
I12
tp984
a(I40
I32968
tp985
a(I160
I15
tp986
a(I161
I5267
tp987
a(I169
I27
tp988
a(I170
I10533
tp989
asI143
(lp990
(I39
I12
tp991
a(I40
I32840
tp992
a(I160
I30
tp993
a(I161
I50630
tp994
a(I169
I56
tp995
a(I170
I35727
tp996
asI144
(lp997
(I39
I12
tp998
a(I40
I19656
tp999
a(I160
I18
tp1000
a(I161
I25993
tp1001
a(I169
I33
tp1002
a(I170
I51985
tp1003
asI145
(lp1004
(I39
I12
tp1005
a(I40
I19528
tp1006
a(I160
I3
tp1007
a(I161
I46300
tp1008
a(I169
I2
tp1009
a(I170
I27067
tp1010
asI146
(lp1011
(I39
I12
tp1012
a(I40
I18632
tp1013
a(I160
I29
tp1014
a(I161
I52771
tp1015
a(I169
I62
tp1016
a(I170
I40005
tp1017
asI147
(lp1018
(I39
I12
tp1019
a(I40
I18504
tp1020
a(I160
I12
tp1021
a(I161
I8054
tp1022
a(I169
I29
tp1023
a(I170
I16111
tp1024
asI148
(lp1025
(I39
I12
tp1026
a(I40
I17608
tp1027
a(I160
I13
tp1028
a(I161
I13021
tp1029
a(I169
I31
tp1030
a(I170
I26041
tp1031
asI149
(lp1032
(I39
I12
tp1033
a(I40
I17480
tp1034
a(I160
I28
tp1035
a(I161
I58248
tp1036
a(I169
I60
tp1037
a(I170
I50963
tp1038
asI150
(lp1039
(I39
I12
tp1040
a(I40
I16584
tp1041
a(I160
I2
tp1042
a(I161
I39287
tp1043
a(I169
I0
tp1044
a(I170
I13037
tp1045
asI151
(lp1046
(I39
I12
tp1047
a(I40
I16456
tp1048
a(I160
I19
tp1049
a(I161
I18466
tp1050
a(I169
I35
tp1051
a(I170
I36935
tp1052
asI152
(lp1053
(I39
I12
tp1054
a(I40
I3272
tp1055
a(I160
I41
tp1056
a(I161
I28330
tp1057
a(I169
I23
tp1058
a(I170
I19926
tp1059
asI153
(lp1060
(I39
I12
tp1061
a(I40
I3144
tp1062
a(I160
I56
tp1063
a(I161
I49151
tp1064
a(I169
I52
tp1065
a(I170
I61308
tp1066
asI154
(lp1067
(I39
I12
tp1068
a(I40
I2248
tp1069
a(I160
I38
tp1070
a(I161
I50432
tp1071
a(I169
I8
tp1072
a(I170
I6786
tp1073
asI155
(lp1074
(I39
I12
tp1075
a(I40
I2120
tp1076
a(I160
I55
tp1077
a(I161
I5205
tp1078
a(I169
I43
tp1079
a(I170
I47144
tp1080
asI156
(lp1081
(I39
I12
tp1082
a(I40
I1224
tp1083
a(I160
I54
tp1084
a(I161
I14846
tp1085
a(I169
I41
tp1086
a(I170
I58238
tp1087
asI157
(lp1088
(I39
I12
tp1089
a(I40
I1096
tp1090
a(I160
I39
tp1091
a(I161
I59563
tp1092
a(I169
I10
tp1093
a(I170
I16852
tp1094
asI158
(lp1095
(I39
I12
tp1096
a(I40
I200
tp1097
a(I160
I57
tp1098
a(I161
I37460
tp1099
a(I169
I54
tp1100
a(I170
I46122
tp1101
asI159
(lp1102
(I39
I12
tp1103
a(I40
I72
tp1104
a(I160
I40
tp1105
a(I161
I17153
tp1106
a(I169
I21
tp1107
a(I170
I5760
tp1108
asI160
(lp1109
(I39
I8
tp1110
a(I40
I52424
tp1111
a(I160
I49
tp1112
a(I161
I54131
tp1113
a(I169
I38
tp1114
a(I170
I13924
tp1115
asI161
(lp1116
(I39
I8
tp1117
a(I40
I52296
tp1118
a(I160
I32
tp1119
a(I161
I550
tp1120
a(I169
I5
tp1121
a(I170
I38094
tp1122
asI162
(lp1123
(I39
I8
tp1124
a(I40
I51400
tp1125
a(I160
I62
tp1126
a(I161
I30937
tp1127
a(I169
I57
tp1128
a(I170
I24880
tp1129
asI163
(lp1130
(I39
I8
tp1131
a(I40
I51272
tp1132
a(I160
I47
tp1133
a(I161
I43404
tp1134
a(I169
I26
tp1135
a(I170
I50074
tp1136
asI164
(lp1137
(I39
I8
tp1138
a(I40
I50376
tp1139
a(I160
I46
tp1140
a(I161
I33831
tp1141
a(I169
I24
tp1142
a(I170
I39116
tp1143
asI165
(lp1144
(I39
I8
tp1145
a(I40
I50248
tp1146
a(I160
I63
tp1147
a(I161
I21874
tp1148
a(I169
I59
tp1149
a(I170
I14950
tp1150
asI166
(lp1151
(I39
I8
tp1152
a(I40
I49352
tp1153
a(I160
I33
tp1154
a(I161
I12173
tp1155
a(I169
I7
tp1156
a(I170
I53144
tp1157
asI167
(lp1158
(I39
I8
tp1159
a(I40
I49224
tp1160
a(I160
I48
tp1161
a(I161
I65240
tp1162
a(I169
I36
tp1163
a(I170
I27954
tp1164
asI168
(lp1165
(I39
I8
tp1166
a(I40
I36040
tp1167
a(I160
I10
tp1168
a(I161
I55376
tp1169
a(I170
I45219
tp1170
asI169
(lp1171
(I39
I8
tp1172
a(I40
I35912
tp1173
a(I160
I27
tp1174
a(I161
I2309
tp1175
a(I169
I51
tp1176
a(I170
I4617
tp1177
asI170
(lp1178
(I39
I8
tp1179
a(I40
I35016
tp1180
a(I160
I5
tp1181
a(I161
I29690
tp1182
a(I169
I15
tp1183
a(I170
I59383
tp1184
asI171
(lp1185
(I39
I8
tp1186
a(I40
I34888
tp1187
a(I160
I20
tp1188
a(I161
I41647
tp1189
a(I169
I44
tp1190
a(I170
I17757
tp1191
asI172
(lp1192
(I39
I8
tp1193
a(I40
I33992
tp1194
a(I160
I21
tp1195
a(I161
I36612
tp1196
a(I169
I46
tp1197
a(I170
I7691
tp1198
asI173
(lp1199
(I39
I8
tp1200
a(I40
I33864
tp1201
a(I160
I4
tp1202
a(I161
I24145
tp1203
a(I169
I13
tp1204
a(I170
I48289
tp1205
asI174
(lp1206
(I39
I8
tp1207
a(I40
I32968
tp1208
a(I160
I26
tp1209
a(I161
I9390
tp1210
a(I169
I49
tp1211
a(I170
I18783
tp1212
asI175
(lp1213
(I39
I8
tp1214
a(I40
I32840
tp1215
a(I160
I11
tp1216
a(I161
I62971
tp1217
a(I169
I18
tp1218
a(I170
I60405
tp1219
asI176
(lp1220
(I39
I8
tp1221
a(I40
I19656
tp1222
a(I160
I7
tp1223
a(I161
I21940
tp1224
a(I169
I11
tp1225
a(I170
I43883
tp1226
asI177
(lp1227
(I39
I8
tp1228
a(I40
I19528
tp1229
a(I160
I22
tp1230
a(I161
I34017
tp1231
a(I169
I40
tp1232
a(I170
I2497
tp1233
asI178
(lp1234
(I39
I8
tp1235
a(I40
I18632
tp1236
a(I160
I8
tp1237
a(I161
I65054
tp1238
a(I169
I20
tp1239
a(I170
I64575
tp1240
asI179
(lp1241
(I39
I8
tp1242
a(I40
I18504
tp1243
a(I160
I25
tp1244
a(I161
I12107
tp1245
a(I169
I55
tp1246
a(I170
I24213
tp1247
asI180
(lp1248
(I39
I8
tp1249
a(I40
I17608
tp1250
a(I160
I24
tp1251
a(I161
I736
tp1252
a(I169
I53
tp1253
a(I170
I1475
tp1254
asI181
(lp1255
(I39
I8
tp1256
a(I40
I17480
tp1257
a(I160
I9
tp1258
a(I161
I54197
tp1259
a(I169
I22
tp1260
a(I170
I42857
tp1261
asI182
(lp1262
(I39
I8
tp1263
a(I40
I16584
tp1264
a(I160
I23
tp1265
a(I161
I43338
tp1266
a(I169
I42
tp1267
a(I170
I21143
tp1268
asI183
(lp1269
(I39
I8
tp1270
a(I40
I16456
tp1271
a(I160
I6
tp1272
a(I161
I30751
tp1273
a(I169
I9
tp1274
a(I170
I61501
tp1275
asI184
(lp1276
(I39
I8
tp1277
a(I40
I3272
tp1278
a(I160
I60
tp1279
a(I161
I24215
tp1280
a(I169
I61
tp1281
a(I170
I11692
tp1282
asI185
(lp1283
(I39
I8
tp1284
a(I40
I3144
tp1285
a(I160
I45
tp1286
a(I161
I36802
tp1287
a(I169
I30
tp1288
a(I170
I36614
tp1289
asI186
(lp1290
(I39
I8
tp1291
a(I40
I2248
tp1292
a(I160
I51
tp1293
a(I161
I62781
tp1294
a(I169
I34
tp1295
a(I170
I31480
tp1296
asI187
(lp1297
(I39
I8
tp1298
a(I40
I2120
tp1299
a(I160
I34
tp1300
a(I161
I9320
tp1301
a(I169
I1
tp1302
a(I170
I55378
tp1303
asI188
(lp1304
(I39
I8
tp1305
a(I40
I1224
tp1306
a(I160
I35
tp1307
a(I161
I2499
tp1308
a(I169
I3
tp1309
a(I170
I33540
tp1310
asI189
(lp1311
(I39
I8
tp1312
a(I40
I1096
tp1313
a(I160
I50
tp1314
a(I161
I55446
tp1315
a(I169
I32
tp1316
a(I170
I8622
tp1317
asI190
(lp1318
(I39
I8
tp1319
a(I40
I200
tp1320
a(I160
I44
tp1321
a(I161
I41577
tp1322
a(I169
I28
tp1323
a(I170
I54352
tp1324
asI191
(lp1325
(I39
I8
tp1326
a(I40
I72
tp1327
a(I160
I61
tp1328
a(I161
I29500
tp1329
a(I169
I63
tp1330
a(I170
I30458
tp1331
asI192
(lp1332
(I39
I4
tp1333
a(I40
I52424
tp1334
a(I160
I14
tp1335
a(I161
I33588
tp1336
a(I169
I24
tp1337
a(I170
I1643
tp1338
asI193
(lp1339
(I39
I4
tp1340
a(I40
I52296
tp1341
a(I160
I31
tp1342
a(I161
I21089
tp1343
a(I169
I59
tp1344
a(I170
I42177
tp1345
asI194
(lp1346
(I39
I4
tp1347
a(I40
I51400
tp1348
a(I160
I1
tp1349
a(I161
I10398
tp1350
a(I169
I7
tp1351
a(I170
I20799
tp1352
asI195
(lp1353
(I39
I4
tp1354
a(I40
I51272
tp1355
a(I160
I16
tp1356
a(I161
I63947
tp1357
a(I169
I36
tp1358
a(I170
I62357
tp1359
asI196
(lp1360
(I39
I4
tp1361
a(I40
I50376
tp1362
a(I160
I17
tp1363
a(I161
I54368
tp1364
a(I169
I38
tp1365
a(I170
I43203
tp1366
asI197
(lp1367
(I39
I4
tp1368
a(I40
I50248
tp1369
a(I160
I0
tp1370
a(I161
I1333
tp1371
a(I169
I5
tp1372
a(I170
I2665
tp1373
asI198
(lp1374
(I39
I4
tp1375
a(I40
I49352
tp1376
a(I160
I30
tp1377
a(I161
I32714
tp1378
a(I169
I57
tp1379
a(I170
I65431
tp1380
asI199
(lp1381
(I39
I4
tp1382
a(I40
I49224
tp1383
a(I160
I15
tp1384
a(I161
I44703
tp1385
a(I169
I26
tp1386
a(I170
I23869
tp1387
asI200
(lp1388
(I39
I4
tp1389
a(I40
I36040
tp1390
a(I160
I53
tp1391
a(I161
I34839
tp1392
a(I169
I46
tp1393
a(I170
I32940
tp1394
asI201
(lp1395
(I39
I4
tp1396
a(I40
I35912
tp1397
a(I160
I36
tp1398
a(I161
I22850
tp1399
a(I169
I13
tp1400
a(I170
I8710
tp1401
asI202
(lp1402
(I39
I4
tp1403
a(I40
I35016
tp1404
a(I160
I58
tp1405
a(I161
I9149
tp1406
a(I169
I49
tp1407
a(I170
I55288
tp1408
asI203
(lp1409
(I39
I4
tp1410
a(I40
I34888
tp1411
a(I160
I43
tp1412
a(I161
I62184
tp1413
a(I169
I18
tp1414
a(I170
I30034
tp1415
asI204
(lp1416
(I39
I4
tp1417
a(I40
I33992
tp1418
a(I161
I57155
tp1419
a(I170
I11780
tp1420
asI205
(lp1421
(I39
I4
tp1422
a(I40
I33864
tp1423
a(I160
I59
tp1424
a(I161
I3606
tp1425
a(I169
I51
tp1426
a(I170
I36014
tp1427
asI206
(lp1428
(I39
I4
tp1429
a(I40
I32968
tp1430
a(I160
I37
tp1431
a(I161
I29929
tp1432
a(I169
I15
tp1433
a(I170
I31056
tp1434
asI207
(lp1435
(I39
I4
tp1436
a(I40
I32840
tp1437
a(I160
I52
tp1438
a(I161
I42428
tp1439
a(I169
I44
tp1440
a(I170
I56314
tp1441
asI208
(lp1442
(I39
I4
tp1443
a(I40
I19656
tp1444
a(I160
I56
tp1445
a(I161
I1523
tp1446
a(I169
I53
tp1447
a(I170
I39780
tp1448
asI209
(lp1449
(I39
I4
tp1450
a(I40
I19528
tp1451
a(I160
I41
tp1452
a(I161
I54438
tp1453
a(I169
I22
tp1454
a(I170
I14798
tp1455
asI210
(lp1456
(I39
I4
tp1457
a(I40
I18632
tp1458
a(I160
I55
tp1459
a(I161
I44633
tp1460
a(I169
I42
tp1461
a(I170
I52272
tp1462
asI211
(lp1463
(I39
I4
tp1464
a(I40
I18504
tp1465
a(I160
I38
tp1466
a(I161
I32524
tp1467
a(I169
I9
tp1468
a(I170
I28314
tp1469
asI212
(lp1470
(I39
I4
tp1471
a(I40
I17608
tp1472
a(I160
I39
tp1473
a(I161
I21159
tp1474
a(I169
I11
tp1475
a(I170
I13772
tp1476
asI213
(lp1477
(I39
I4
tp1478
a(I40
I17480
tp1479
a(I160
I54
tp1480
a(I161
I33778
tp1481
a(I169
I40
tp1482
a(I170
I38758
tp1483
asI214
(lp1484
(I39
I4
tp1485
a(I40
I16584
tp1486
a(I160
I40
tp1487
a(I161
I63757
tp1488
a(I169
I20
tp1489
a(I170
I25240
tp1490
asI215
(lp1491
(I39
I4
tp1492
a(I40
I16456
tp1493
a(I160
I57
tp1494
a(I161
I10328
tp1495
a(I169
I55
tp1496
a(I170
I49202
tp1497
asI216
(lp1498
(I39
I4
tp1499
a(I40
I3272
tp1500
a(I160
I3
tp1501
a(I161
I3792
tp1502
a(I169
I3
tp1503
a(I170
I7587
tp1504
asI217
(lp1505
(I39
I4
tp1506
a(I40
I3144
tp1507
a(I160
I18
tp1508
a(I161
I57221
tp1509
a(I169
I32
tp1510
a(I170
I48905
tp1511
asI218
(lp1512
(I39
I4
tp1513
a(I40
I2248
tp1514
a(I160
I12
tp1515
a(I161
I42362
tp1516
a(I169
I28
tp1517
a(I170
I19191
tp1518
asI219
(lp1519
(I39
I4
tp1520
a(I40
I2120
tp1521
a(I160
I29
tp1522
a(I161
I29743
tp1523
a(I169
I63
tp1524
a(I170
I59485
tp1525
asI220
(lp1526
(I39
I4
tp1527
a(I40
I1224
tp1528
a(I160
I28
tp1529
a(I161
I22916
tp1530
a(I169
I61
tp1531
a(I170
I45835
tp1532
asI221
(lp1533
(I39
I4
tp1534
a(I40
I1096
tp1535
a(I160
I13
tp1536
a(I161
I35025
tp1537
a(I169
I30
tp1538
a(I170
I4513
tp1539
asI222
(lp1540
(I39
I4
tp1541
a(I40
I200
tp1542
a(I160
I19
tp1543
a(I161
I61998
tp1544
a(I169
I34
tp1545
a(I170
I58463
tp1546
asI223
(lp1547
(I39
I4
tp1548
a(I40
I72
tp1549
a(I160
I2
tp1550
a(I161
I9083
tp1551
a(I169
I1
tp1552
a(I170
I18165
tp1553
asI224
(lp1554
(I40
I52424
tp1555
a(I160
I27
tp1556
a(I161
I45833
tp1557
a(I169
I50
tp1558
a(I170
I26129
tp1559
asI225
(lp1560
(I40
I52296
tp1561
a(I160
I10
tp1562
a(I161
I25180
tp1563
a(I169
I17
tp1564
a(I170
I50363
tp1565
asI226
(lp1566
(I40
I51400
tp1567
a(I160
I20
tp1568
a(I161
I6307
tp1569
a(I169
I45
tp1570
a(I170
I12613
tp1571
asI227
(lp1572
(I40
I51272
tp1573
a(I160
I5
tp1574
a(I161
I51702
tp1575
a(I169
I14
tp1576
a(I170
I37871
tp1577
asI228
(lp1578
(I40
I50376
tp1579
a(I160
I4
tp1580
a(I161
I58461
tp1581
a(I169
I12
tp1582
a(I170
I51385
tp1583
asI229
(lp1584
(I40
I50248
tp1585
a(I160
I21
tp1586
a(I161
I13576
tp1587
a(I169
I47
tp1588
a(I170
I27155
tp1589
asI230
(lp1590
(I40
I49352
tp1591
a(I160
I11
tp1592
a(I161
I20471
tp1593
a(I169
I19
tp1594
a(I170
I40941
tp1595
asI231
(lp1596
(I40
I49224
tp1597
a(I160
I26
tp1598
a(I161
I40610
tp1599
a(I169
I48
tp1600
a(I170
I15687
tp1601
asI232
(lp1602
(I40
I36040
tp1603
a(I160
I32
tp1604
a(I161
I47146
tp1605
a(I169
I4
tp1606
a(I170
I57558
tp1607
asI233
(lp1608
(I40
I35912
tp1609
a(I160
I49
tp1610
a(I161
I27007
tp1611
a(I169
I39
tp1612
a(I170
I17020
tp1613
asI234
(lp1614
(I40
I35016
tp1615
a(I160
I47
tp1616
a(I161
I4992
tp1617
a(I169
I27
tp1618
a(I170
I46978
tp1619
asI235
(lp1620
(I40
I34888
tp1621
a(I160
I62
tp1622
a(I161
I49877
tp1623
a(I169
I56
tp1624
a(I170
I5416
tp1625
asI236
(lp1626
(I40
I33992
tp1627
a(I160
I63
tp1628
a(I161
I61310
tp1629
a(I169
I58
tp1630
a(I170
I20094
tp1631
asI237
(lp1632
(I40
I33864
tp1633
a(I160
I46
tp1634
a(I161
I15915
tp1635
a(I169
I25
tp1636
a(I170
I60628
tp1637
asI238
(lp1638
(I40
I32968
tp1639
a(I160
I48
tp1640
a(I161
I17620
tp1641
a(I169
I37
tp1642
a(I170
I6442
tp1643
asI239
(lp1644
(I40
I32840
tp1645
a(I160
I33
tp1646
a(I161
I38273
tp1647
a(I169
I6
tp1648
a(I170
I48000
tp1649
asI240
(lp1650
(I40
I19656
tp1651
a(I160
I45
tp1652
a(I161
I13774
tp1653
a(I169
I31
tp1654
a(I170
I64286
tp1655
asI241
(lp1656
(I40
I19528
tp1657
a(I160
I60
tp1658
a(I161
I58523
tp1659
a(I169
I60
tp1660
a(I170
I22964
tp1661
asI242
(lp1662
(I40
I18632
tp1663
a(I160
I34
tp1664
a(I161
I40548
tp1665
a(I169
I0
tp1666
a(I170
I44106
tp1667
asI243
(lp1668
(I40
I18504
tp1669
a(I160
I51
tp1670
a(I161
I20273
tp1671
a(I169
I35
tp1672
a(I170
I3808
tp1673
asI244
(lp1674
(I40
I17608
tp1675
a(I160
I50
tp1676
a(I161
I25242
tp1677
a(I169
I33
tp1678
a(I170
I21942
tp1679
asI245
(lp1680
(I40
I17480
tp1681
a(I160
I35
tp1682
a(I161
I46031
tp1683
a(I169
I2
tp1684
a(I170
I63260
tp1685
asI246
(lp1686
(I40
I16584
tp1687
a(I160
I61
tp1688
a(I161
I51504
tp1689
a(I169
I62
tp1690
a(I170
I738
tp1691
asI247
(lp1692
(I40
I16456
tp1693
a(I160
I44
tp1694
a(I161
I6245
tp1695
a(I169
I29
tp1696
a(I170
I41032
tp1697
asI248
(lp1698
(I40
I3272
tp1699
a(I160
I22
tp1700
a(I161
I16109
tp1701
a(I169
I41
tp1702
a(I170
I32217
tp1703
asI249
(lp1704
(I40
I3144
tp1705
a(I160
I7
tp1706
a(I161
I61368
tp1707
a(I169
I10
tp1708
a(I170
I57203
tp1709
asI250
(lp1710
(I40
I2248
tp1711
a(I160
I25
tp1712
a(I161
I38215
tp1713
a(I169
I54
tp1714
a(I170
I10893
tp1715
asI251
(lp1716
(I40
I2120
tp1717
a(I160
I8
tp1718
a(I161
I17426
tp1719
a(I169
I21
tp1720
a(I170
I34855
tp1721
asI252
(lp1722
(I40
I1224
tp1723
a(I160
I9
tp1724
a(I161
I27065
tp1725
a(I169
I23
tp1726
a(I170
I54129
tp1727
asI253
(lp1728
(I40
I1096
tp1729
a(I160
I24
tp1730
a(I161
I47340
tp1731
a(I169
I52
tp1732
a(I170
I29147
tp1733
asI254
(lp1734
(I40
I200
tp1735
a(I160
I6
tp1736
a(I161
I49683
tp1737
a(I169
I8
tp1738
a(I170
I33829
tp1739
asI255
(lp1740
(I40
I72
tp1741
a(I160
I23
tp1742
a(I161
I4934
tp1743
a(I169
I43
tp1744
a(I170
I9871
tp1745
assS'location'
p1746
S'reg_clockglitch/gc/DCM_extclock_gen'
p1747
sS'base'
p1748
(lp1749
I65535
aI65535
aI65535
aI65535
aI65535
aI65535
aI65535
aI65535
aI43673
aI21862
aI12449
aI7
aI8192
aI12705
aI1160
aI12738
aI1024
aI16531
aI12609
aI15616
aI12641
aI2542
aI12322
aI787
aI30
aI12449
aI1
aI20576
aI0
aI130
aI0
aI0
aI0
aI0
aI0
aI0
aI0
aI0
aI0
aI0
aI0
aI32768
aI4096
aI0
aI0
aI323
aI1
aI27833
aI16896
aI51656
aI8706
aI24
aI43536
aI6144
aI88
aI18739
aI24576
aI53772
aI0
aI0
aI0
aI0
aI0
aI0
aI0
aI0
aI0
aI52356
aI4353
aI1280
aI2454
aI538
aI4516
aI23040
aI4096
aI4112
aI0
aI49216
aI34944
aI512
aI4
aI1024
aI22
aI6144
aI0
aI0
aI0
aI0
aI16384
aI2048
aI0
aI0
aI0
aI0
aI0
aI65535
aI65535
aI65535
aI65535
aI65535
aI65535
aI65535
aI65535
aI65535
aI65535
aI65535
aI65535
aI65535
aI65535
aI65535
aI65535
aI65535
aI65535
aI65535
aI65535
aI65535
aI65535
aI65535
aI65535
aI65535
aI65535
aI65535
aI65535
aI65535
aI65535
aI65535
aI65535
aI65535
aI65535
aI65535
aI65535
aI65535
aI65535
aI65535
aI65535
aI65535
aI65535
aI65535
aI65535
aI65535
aI65535
aI65535
aI65535
aI65535
aI65535
aI65535
aI65535
aI65535
aI65535
aI65535
aI65535
aI65535
aI65535
aI65535
aI65535
aI65535
aI65535
aI65535
aI65535
aI65535
aI42
aI33681
aI12449
aI3
aI8192
aI8192
aI8192
aI8192
aI12290
aI16
aI38816
aI12449
aI13
aI8192
aI8192
aI8192
aI8192
aI8192
aI8192
aI8192
aI8192
aI8192
aI8192
aI8192
aI8192
aI8192
aI8192
aI8192
aI8192
asS'crc32'
p1750
I0
sS'desc'
p1751
S'Glitch Width'
p1752
s.