Archive member included to satisfy reference by file (symbol)

/usr/lib/gcc/arm-none-eabi/4.8/../../../arm-none-eabi/lib/armv7-m/libc.a(lib_a-atexit.o)
                              /usr/lib/gcc/arm-none-eabi/4.8/../../../arm-none-eabi/lib/armv7-m/crt0.o (atexit)
/usr/lib/gcc/arm-none-eabi/4.8/../../../arm-none-eabi/lib/armv7-m/libc.a(lib_a-exit.o)
                              /usr/lib/gcc/arm-none-eabi/4.8/../../../arm-none-eabi/lib/armv7-m/crt0.o (exit)
/usr/lib/gcc/arm-none-eabi/4.8/../../../arm-none-eabi/lib/armv7-m/libc.a(lib_a-fini.o)
                              /usr/lib/gcc/arm-none-eabi/4.8/../../../arm-none-eabi/lib/armv7-m/crt0.o (__libc_fini_array)
/usr/lib/gcc/arm-none-eabi/4.8/../../../arm-none-eabi/lib/armv7-m/libc.a(lib_a-impure.o)
                              /usr/lib/gcc/arm-none-eabi/4.8/../../../arm-none-eabi/lib/armv7-m/libc.a(lib_a-exit.o) (_global_impure_ptr)
/usr/lib/gcc/arm-none-eabi/4.8/../../../arm-none-eabi/lib/armv7-m/libc.a(lib_a-init.o)
                              /usr/lib/gcc/arm-none-eabi/4.8/../../../arm-none-eabi/lib/armv7-m/crt0.o (__libc_init_array)
/usr/lib/gcc/arm-none-eabi/4.8/../../../arm-none-eabi/lib/armv7-m/libc.a(lib_a-memset.o)
                              /usr/lib/gcc/arm-none-eabi/4.8/../../../arm-none-eabi/lib/armv7-m/crt0.o (memset)
/usr/lib/gcc/arm-none-eabi/4.8/../../../arm-none-eabi/lib/armv7-m/libc.a(lib_a-__atexit.o)
                              /usr/lib/gcc/arm-none-eabi/4.8/../../../arm-none-eabi/lib/armv7-m/libc.a(lib_a-atexit.o) (__register_exitproc)
/usr/lib/gcc/arm-none-eabi/4.8/../../../arm-none-eabi/lib/armv7-m/libc.a(lib_a-__call_atexit.o)
                              /usr/lib/gcc/arm-none-eabi/4.8/../../../arm-none-eabi/lib/armv7-m/libc.a(lib_a-exit.o) (__call_exitprocs)
/usr/lib/gcc/arm-none-eabi/4.8/../../../arm-none-eabi/lib/armv7-m/libnosys.a(_exit.o)
                              /usr/lib/gcc/arm-none-eabi/4.8/../../../arm-none-eabi/lib/armv7-m/libc.a(lib_a-exit.o) (_exit)

Memory Configuration

Name             Origin             Length             Attributes
FLASH            0x00200000         0x0007ffd4         xr
FLASH_CCA        0x0027ffd4         0x0000000c         xr
SRAM_RETENTION   0x20000000         0x00004000         xrw
SRAM_NON_RETENTION 0x20004000         0x00004000         xrw
*default*        0x00000000         0xffffffff

Linker script and memory map

LOAD /usr/lib/gcc/arm-none-eabi/4.8/armv7-m/crti.o
LOAD /usr/lib/gcc/arm-none-eabi/4.8/armv7-m/crtbegin.o
LOAD /usr/lib/gcc/arm-none-eabi/4.8/../../../arm-none-eabi/lib/armv7-m/crt0.o
LOAD /tmp/ccUTunIa.o
LOAD /tmp/ccwKc1Ft.o
LOAD /tmp/ccY9tR5M.o
LOAD /tmp/ccEps4N6.o
LOAD /tmp/ccySXhWq.o
LOAD /tmp/ccGgTwuL.o
LOAD /tmp/ccTi1Vm6.o
LOAD /tmp/ccoefDur.o
LOAD /tmp/cctoUe3M.o
LOAD /tmp/ccxLdFT8.o
START GROUP
LOAD /usr/lib/gcc/arm-none-eabi/4.8/armv7-m/libgcc.a
LOAD /usr/lib/gcc/arm-none-eabi/4.8/../../../arm-none-eabi/lib/armv7-m/libc.a
END GROUP
START GROUP
LOAD /usr/lib/gcc/arm-none-eabi/4.8/armv7-m/libgcc.a
LOAD /usr/lib/gcc/arm-none-eabi/4.8/../../../arm-none-eabi/lib/armv7-m/libc.a
LOAD /usr/lib/gcc/arm-none-eabi/4.8/../../../arm-none-eabi/lib/armv7-m/libnosys.a
END GROUP
LOAD /usr/lib/gcc/arm-none-eabi/4.8/armv7-m/crtend.o
LOAD /usr/lib/gcc/arm-none-eabi/4.8/armv7-m/crtn.o
                0x00000000                _Min_Heap_Size = 0x0
                0x000000ff                _Min_Stack_Size = 0xff
                0x20004000                _estack = 0x20004000

.isr_vector     0x00200000      0x100
                0x00200000                . = ALIGN (0x4)
 *(.isr_vector)
 .isr_vector    0x00200000      0x100 /tmp/ccxLdFT8.o
                0x00200000                g_pfnVectors
                0x00200100                . = ALIGN (0x4)

.text           0x00200100     0x2488
                0x00200100                . = ALIGN (0x4)
 *(.text)
 .text          0x00200100        0x0 /usr/lib/gcc/arm-none-eabi/4.8/armv7-m/crti.o
 .text          0x00200100       0xac /usr/lib/gcc/arm-none-eabi/4.8/armv7-m/crtbegin.o
 .text          0x002001ac       0x68 /usr/lib/gcc/arm-none-eabi/4.8/../../../arm-none-eabi/lib/armv7-m/crt0.o
                0x002001ac                _mainCRTStartup
                0x002001ac                _start
 .text          0x00200214      0x56c /tmp/ccUTunIa.o
                0x00200214                IOCPinConfigPeriphOutput
                0x002002dc                IOCPinConfigPeriphInput
                0x00200488                IOCPadConfigSet
                0x00200554                IOCPadConfigGet
 .text          0x00200780      0x6f0 /tmp/ccwKc1Ft.o
                0x00200780                UARTParityModeSet
                0x002007a8                UARTParityModeGet
                0x002007c8                UARTFIFOLevelSet
                0x002007ec                UARTFIFOLevelGet
                0x00200820                UARTConfigSetExpClk
                0x002008a4                UARTConfigGetExpClk
                0x00200908                UARTEnable
                0x00200940                UARTDisable
                0x00200988                UARTFIFOEnable
                0x002009ac                UARTFIFODisable
                0x002009d0                UARTEnableSIR
                0x00200a10                UARTDisableSIR
                0x00200a34                UARTTxIntModeSet
                0x00200a5c                UARTTxIntModeGet
                0x00200a7c                UARTCharsAvail
                0x00200aa4                UARTSpaceAvail
                0x00200acc                UARTCharGetNonBlocking
                0x00200af8                UARTCharGet
                0x00200b20                UARTCharPutNonBlocking
                0x00200b54                UARTCharPut
                0x00200b80                UARTBreakCtl
                0x00200bbc                UARTBusy
                0x00200be4                UARTIntRegister
                0x00200c18                UARTIntUnregister
                0x00200c48                UARTIntEnable
                0x00200c6c                UARTIntDisable
                0x00200c94                UARTIntStatus
                0x00200cc0                UARTIntClear
                0x00200cdc                UARTDMAEnable
                0x00200d00                UARTDMADisable
                0x00200d28                UARTRxErrorGet
                0x00200d48                UARTRxErrorClear
                0x00200d64                UARTClockSourceSet
                0x00200d84                UARTClockSourceGet
                0x00200da0                UART9BitEnable
                0x00200dc4                UART9BitDisable
                0x00200de8                UART9BitAddrSet
                0x00200e14                UART9BitAddrSend
 .text          0x00200e70       0x70 /tmp/ccY9tR5M.o
                0x00200e70                main
 .text          0x00200ee0      0x448 /tmp/ccEps4N6.o
                0x00200ee8                IntMasterEnable
                0x00200f00                IntMasterDisable
                0x00200f18                IntRegister
                0x00200f7c                IntUnregister
                0x00200fa0                IntPriorityGroupingSet
                0x00200fd0                IntPriorityGroupingGet
                0x00201018                IntPrioritySet
                0x00201078                IntPriorityGet
                0x002010ac                IntEnable
                0x0020113c                IntDisable
                0x002011cc                IntPendSet
                0x00201244                IntPendClear
                0x002012a8                IntPriorityMaskSet
                0x002012bc                IntPriorityMaskGet
                0x002012cc                IntAltMapEnable
                0x002012e8                IntAltMapDisable
                0x00201304                IntAltMapIsEnabled
 .text          0x00201328      0x820 /tmp/ccySXhWq.o
                0x00201328                GPIOGetIntNumber
                0x00201390                GPIODirModeSet
                0x00201408                GPIODirModeGet
                0x00201464                GPIOIntTypeSet
                0x0020150c                GPIOIntTypeGet
                0x00201584                GPIOPinIntEnable
                0x002015b0                GPIOPinIntDisable
                0x002015dc                GPIOPinIntStatus
                0x0020160c                GPIOPinIntClear
                0x0020162c                GPIOPortIntRegister
                0x00201654                GPIOPortIntUnregister
                0x00201678                GPIOPinRead
                0x0020169c                GPIOPinWrite
                0x002016c4                GPIOPinTypeGPIOInput
                0x002016f0                GPIOPinTypeGPIOOutput
                0x0020171c                GPIOPinTypeI2C
                0x00201748                GPIOPinTypeSSI
                0x00201774                GPIOPinTypeTimer
                0x002017a0                GPIOPinTypeUARTInput
                0x002017cc                GPIOPinTypeUARTOutput
                0x002017f8                GPIOPowIntTypeSet
                0x00201890                GPIOPowIntTypeGet
                0x00201910                GPIOPowIntEnable
                0x00201988                GPIOPowIntDisable
                0x00201a04                GPIOPowIntStatus
                0x00201a88                GPIOPowIntClear
                0x00201b00                GPIOIntWakeupEnable
                0x00201b24                GPIOIntWakeupDisable
 .text          0x00201b48        0x0 /tmp/ccGgTwuL.o
 .text          0x00201b48       0x4c /tmp/ccTi1Vm6.o
                0x00201b48                CPUcpsid
                0x00201b58                CPUprimask
                0x00201b64                CPUcpsie
                0x00201b74                CPUwfi
                0x00201b78                CPUwfe
                0x00201b7c                CPUsev
                0x00201b80                CPUbasepriSet
                0x00201b88                CPUbasepriGet
 .text          0x00201b94      0x658 /tmp/ccoefDur.o
                0x00201b94                SysCtrlClockSet
                0x00201c50                SysCtrlClockGet
                0x00201cf8                SysCtrlIOClockSet
                0x00201d2c                SysCtrlIOClockGet
                0x00201dd8                SysCtrlDelay
                0x00201de0                SysCtrlReset
                0x00201df0                SysCtrlSleep
                0x00201dfc                SysCtrlDeepSleep
                0x00201ed8                SysCtrlPeripheralPresent
                0x00201f54                SysCtrlPeripheralReset
                0x00201fdc                SysCtrlPeripheralEnable
                0x00202020                SysCtrlPeripheralDisable
                0x00202068                SysCtrlPeripheralSleepEnable
                0x002020ac                SysCtrlPeripheralSleepDisable
                0x002020f4                SysCtrlPeripheralDeepSleepEnable
                0x00202138                SysCtrlPeripheralDeepSleepDisable
                0x00202180                SysCtrlPowerModeSet
                0x0020219c                SysCtrlPowerModeGet
                0x002021c4                SysCtrlClockLossDetectEnable
 .text          0x002021ec        0xc /tmp/cctoUe3M.o
                0x002021ec                __error__
 .text          0x002021f8       0x14 /tmp/ccxLdFT8.o
 .text          0x0020220c        0x0 /usr/lib/gcc/arm-none-eabi/4.8/../../../arm-none-eabi/lib/armv7-m/libc.a(lib_a-atexit.o)
 .text          0x0020220c        0x0 /usr/lib/gcc/arm-none-eabi/4.8/../../../arm-none-eabi/lib/armv7-m/libc.a(lib_a-exit.o)
 .text          0x0020220c        0x0 /usr/lib/gcc/arm-none-eabi/4.8/../../../arm-none-eabi/lib/armv7-m/libc.a(lib_a-fini.o)
 .text          0x0020220c        0x0 /usr/lib/gcc/arm-none-eabi/4.8/../../../arm-none-eabi/lib/armv7-m/libc.a(lib_a-impure.o)
 .text          0x0020220c        0x0 /usr/lib/gcc/arm-none-eabi/4.8/../../../arm-none-eabi/lib/armv7-m/libc.a(lib_a-init.o)
 .text          0x0020220c        0x0 /usr/lib/gcc/arm-none-eabi/4.8/../../../arm-none-eabi/lib/armv7-m/libc.a(lib_a-memset.o)
 .text          0x0020220c        0x0 /usr/lib/gcc/arm-none-eabi/4.8/../../../arm-none-eabi/lib/armv7-m/libc.a(lib_a-__atexit.o)
 .text          0x0020220c        0x0 /usr/lib/gcc/arm-none-eabi/4.8/../../../arm-none-eabi/lib/armv7-m/libc.a(lib_a-__call_atexit.o)
 .text          0x0020220c        0x0 /usr/lib/gcc/arm-none-eabi/4.8/../../../arm-none-eabi/lib/armv7-m/libnosys.a(_exit.o)
 .text          0x0020220c        0x0 /usr/lib/gcc/arm-none-eabi/4.8/armv7-m/crtend.o
 .text          0x0020220c        0x0 /usr/lib/gcc/arm-none-eabi/4.8/armv7-m/crtn.o
 *(.text*)
 .text.Reset_Handler
                0x0020220c       0x4c /tmp/ccxLdFT8.o
                0x0020220c                Reset_Handler
 .text.Default_Handler
                0x00202258        0x2 /tmp/ccxLdFT8.o
                0x00202258                DebugMon_Handler
                0x00202258                HardFault_Handler
                0x00202258                SysTick_Handler
                0x00202258                PendSV_Handler
                0x00202258                NMI_Handler
                0x00202258                UsageFault_Handler
                0x00202258                Default_Handler
                0x00202258                MemManage_Handler
                0x00202258                SVC_Handler
                0x00202258                BusFault_Handler
 *fill*         0x0020225a        0x2 
 .text.atexit   0x0020225c        0xc /usr/lib/gcc/arm-none-eabi/4.8/../../../arm-none-eabi/lib/armv7-m/libc.a(lib_a-atexit.o)
                0x0020225c                atexit
 .text.exit     0x00202268       0x20 /usr/lib/gcc/arm-none-eabi/4.8/../../../arm-none-eabi/lib/armv7-m/libc.a(lib_a-exit.o)
                0x00202268                exit
 .text.__libc_fini_array
                0x00202288       0x34 /usr/lib/gcc/arm-none-eabi/4.8/../../../arm-none-eabi/lib/armv7-m/libc.a(lib_a-fini.o)
                0x00202288                __libc_fini_array
 .text.__libc_init_array
                0x002022bc       0x5c /usr/lib/gcc/arm-none-eabi/4.8/../../../arm-none-eabi/lib/armv7-m/libc.a(lib_a-init.o)
                0x002022bc                __libc_init_array
 .text.memset   0x00202318       0x94 /usr/lib/gcc/arm-none-eabi/4.8/../../../arm-none-eabi/lib/armv7-m/libc.a(lib_a-memset.o)
                0x00202318                memset
 .text.__register_exitproc
                0x002023ac       0xac /usr/lib/gcc/arm-none-eabi/4.8/../../../arm-none-eabi/lib/armv7-m/libc.a(lib_a-__atexit.o)
                0x002023ac                __register_exitproc
 .text.startup.register_fini
                0x00202458       0x18 /usr/lib/gcc/arm-none-eabi/4.8/../../../arm-none-eabi/lib/armv7-m/libc.a(lib_a-__call_atexit.o)
 .text.__call_exitprocs
                0x00202470       0xf8 /usr/lib/gcc/arm-none-eabi/4.8/../../../arm-none-eabi/lib/armv7-m/libc.a(lib_a-__call_atexit.o)
                0x00202470                __call_exitprocs
 .text._exit    0x00202568        0x4 /usr/lib/gcc/arm-none-eabi/4.8/../../../arm-none-eabi/lib/armv7-m/libnosys.a(_exit.o)
                0x00202568                _exit
 *(.glue_7)
 .glue_7        0x0020256c        0x0 linker stubs
 *(.glue_7t)
 .glue_7t       0x0020256c        0x0 linker stubs
 *(.eh_frame)
 .eh_frame      0x0020256c        0x0 /usr/lib/gcc/arm-none-eabi/4.8/armv7-m/crtbegin.o
 .eh_frame      0x0020256c        0x4 /usr/lib/gcc/arm-none-eabi/4.8/armv7-m/crtend.o
 *(.init)
 .init          0x00202570        0x4 /usr/lib/gcc/arm-none-eabi/4.8/armv7-m/crti.o
                0x00202570                _init
 .init          0x00202574        0x8 /usr/lib/gcc/arm-none-eabi/4.8/armv7-m/crtn.o
 *(.fini)
 .fini          0x0020257c        0x4 /usr/lib/gcc/arm-none-eabi/4.8/armv7-m/crti.o
                0x0020257c                _fini
 .fini          0x00202580        0x8 /usr/lib/gcc/arm-none-eabi/4.8/armv7-m/crtn.o
                0x00202588                . = ALIGN (0x4)
                0x00202588                _etext = .

.vfp11_veneer   0x00202588        0x0
 .vfp11_veneer  0x00202588        0x0 linker stubs

.v4_bx          0x00202588        0x0
 .v4_bx         0x00202588        0x0 linker stubs

.iplt           0x00202588        0x0
 .iplt          0x00202588        0x0 /usr/lib/gcc/arm-none-eabi/4.8/armv7-m/crtbegin.o

.const          0x00202588        0x0
                0x00202588                . = ALIGN (0x4)
 *(.const)
 *(.const*)
                0x00202588                . = ALIGN (0x4)

.binit          0x00202588        0x0
                0x00202588                . = ALIGN (0x4)
 *(.binit)
 *(.binit*)
                0x00202588                . = ALIGN (0x4)

.cinit          0x00202588        0x0
                0x00202588                . = ALIGN (0x4)
 *(.cinit)
 *(.cinit*)
                0x00202588                . = ALIGN (0x4)

.rodata         0x00202588      0x290
                0x00202588                . = ALIGN (0x4)
 *(.rodata)
 .rodata        0x00202588      0x100 /tmp/ccUTunIa.o
 .rodata        0x00202688      0x114 /tmp/ccEps4N6.o
 .rodata        0x0020279c       0x74 /tmp/ccoefDur.o
 *(.rodata*)
 .rodata.str1.4
                0x00202810        0x4 /usr/lib/gcc/arm-none-eabi/4.8/../../../arm-none-eabi/lib/armv7-m/libc.a(lib_a-impure.o)
 .rodata._global_impure_ptr
                0x00202814        0x4 /usr/lib/gcc/arm-none-eabi/4.8/../../../arm-none-eabi/lib/armv7-m/libc.a(lib_a-impure.o)
                0x00202814                _global_impure_ptr
                0x00202818                . = ALIGN (0x4)

.ARM.extab      0x00202818        0x0
 .ARM.extab     0x00202818        0x0 /usr/lib/gcc/arm-none-eabi/4.8/../../../arm-none-eabi/lib/armv7-m/crt0.o

.ARM            0x00202818        0x8
                0x00202818                . = ALIGN (0x4)
                0x00202818                __exidx_start = .
 *(.ARM.exidx*)
 .ARM.exidx     0x00202818        0x8 /usr/lib/gcc/arm-none-eabi/4.8/../../../arm-none-eabi/lib/armv7-m/crt0.o
                0x00202820                __exidx_end = .
                0x00202820                . = ALIGN (0x4)

.preinit_array  0x00202820        0x0
                0x00202820                . = ALIGN (0x4)
                0x00202820                PROVIDE (__preinit_array_start, .)
 *(.preinit_array*)
                0x00202820                PROVIDE (__preinit_array_end, .)
                0x00202820                . = ALIGN (0x4)

.init_array     0x00202820        0x8
                0x00202820                . = ALIGN (0x4)
                0x00202820                PROVIDE (__init_array_start, .)
 *(SORT(.init_array.*))
 .init_array.00000
                0x00202820        0x4 /usr/lib/gcc/arm-none-eabi/4.8/../../../arm-none-eabi/lib/armv7-m/libc.a(lib_a-__call_atexit.o)
 *(.init_array*)
 .init_array    0x00202824        0x4 /usr/lib/gcc/arm-none-eabi/4.8/armv7-m/crtbegin.o
                0x00202828                PROVIDE (__init_array_end, .)
                0x00202828                . = ALIGN (0x4)

.flashcca       0x0027ffd4        0xc
                0x0027ffd4                . = ALIGN (0x4)
 *(.flashcca)
 .flashcca      0x0027ffd4        0xc /tmp/ccGgTwuL.o
                0x0027ffd4                __cca
 *(.flashcca*)
                0x0027ffe0                . = ALIGN (0x4)

.rel.dyn        0x0027ffe0        0x0
 .rel.iplt      0x0027ffe0        0x0 /usr/lib/gcc/arm-none-eabi/4.8/armv7-m/crtbegin.o

.vtable         0x20000000        0x0
                0x20000000                . = ALIGN (0x4)
 *(.vtable)
 *(.vtable*)
                0x20000000                . = ALIGN (0x4)
                0x20000000                _sidata = LOADADDR (.data)

.data           0x20000000      0x434
                0x20000000                . = ALIGN (0x4)
                0x20000000                _sdata = .
 *(.data)
 .data          0x20000000        0x0 /usr/lib/gcc/arm-none-eabi/4.8/armv7-m/crti.o
 .data          0x20000000        0x4 /usr/lib/gcc/arm-none-eabi/4.8/armv7-m/crtbegin.o
                0x20000000                __dso_handle
 .data          0x20000004        0x0 /usr/lib/gcc/arm-none-eabi/4.8/../../../arm-none-eabi/lib/armv7-m/crt0.o
 .data          0x20000004        0x0 /tmp/ccUTunIa.o
 .data          0x20000004        0x0 /tmp/ccwKc1Ft.o
 .data          0x20000004        0x0 /tmp/ccY9tR5M.o
 .data          0x20000004        0x0 /tmp/ccEps4N6.o
 .data          0x20000004        0x0 /tmp/ccySXhWq.o
 .data          0x20000004        0x0 /tmp/ccGgTwuL.o
 .data          0x20000004        0x0 /tmp/ccTi1Vm6.o
 .data          0x20000004        0x0 /tmp/ccoefDur.o
 .data          0x20000004        0x0 /tmp/cctoUe3M.o
 .data          0x20000004        0x0 /tmp/ccxLdFT8.o
 .data          0x20000004        0x0 /usr/lib/gcc/arm-none-eabi/4.8/../../../arm-none-eabi/lib/armv7-m/libc.a(lib_a-atexit.o)
 .data          0x20000004        0x0 /usr/lib/gcc/arm-none-eabi/4.8/../../../arm-none-eabi/lib/armv7-m/libc.a(lib_a-exit.o)
 .data          0x20000004        0x0 /usr/lib/gcc/arm-none-eabi/4.8/../../../arm-none-eabi/lib/armv7-m/libc.a(lib_a-fini.o)
 .data          0x20000004        0x0 /usr/lib/gcc/arm-none-eabi/4.8/../../../arm-none-eabi/lib/armv7-m/libc.a(lib_a-impure.o)
 .data          0x20000004        0x0 /usr/lib/gcc/arm-none-eabi/4.8/../../../arm-none-eabi/lib/armv7-m/libc.a(lib_a-init.o)
 .data          0x20000004        0x0 /usr/lib/gcc/arm-none-eabi/4.8/../../../arm-none-eabi/lib/armv7-m/libc.a(lib_a-memset.o)
 .data          0x20000004        0x0 /usr/lib/gcc/arm-none-eabi/4.8/../../../arm-none-eabi/lib/armv7-m/libc.a(lib_a-__atexit.o)
 .data          0x20000004        0x0 /usr/lib/gcc/arm-none-eabi/4.8/../../../arm-none-eabi/lib/armv7-m/libc.a(lib_a-__call_atexit.o)
 .data          0x20000004        0x0 /usr/lib/gcc/arm-none-eabi/4.8/../../../arm-none-eabi/lib/armv7-m/libnosys.a(_exit.o)
 .data          0x20000004        0x0 /usr/lib/gcc/arm-none-eabi/4.8/armv7-m/crtend.o
 .data          0x20000004        0x0 /usr/lib/gcc/arm-none-eabi/4.8/armv7-m/crtn.o
 *(.data*)
 *fill*         0x20000004        0x4 
 .data.impure_data
                0x20000008      0x428 /usr/lib/gcc/arm-none-eabi/4.8/../../../arm-none-eabi/lib/armv7-m/libc.a(lib_a-impure.o)
 .data._impure_ptr
                0x20000430        0x4 /usr/lib/gcc/arm-none-eabi/4.8/../../../arm-none-eabi/lib/armv7-m/libc.a(lib_a-impure.o)
                0x20000430                _impure_ptr
                0x20000434                . = ALIGN (0x4)
                0x20000434                _edata = .

.fini_array     0x20000434        0x4
 .fini_array    0x20000434        0x4 /usr/lib/gcc/arm-none-eabi/4.8/armv7-m/crtbegin.o

.jcr            0x20000438        0x4
 .jcr           0x20000438        0x0 /usr/lib/gcc/arm-none-eabi/4.8/armv7-m/crtbegin.o
 .jcr           0x20000438        0x4 /usr/lib/gcc/arm-none-eabi/4.8/armv7-m/crtend.o

.tm_clone_table
                0x2000043c        0x0
 .tm_clone_table
                0x2000043c        0x0 /usr/lib/gcc/arm-none-eabi/4.8/armv7-m/crtbegin.o
 .tm_clone_table
                0x2000043c        0x0 /usr/lib/gcc/arm-none-eabi/4.8/armv7-m/crtend.o

.igot.plt       0x2000043c        0x0
 .igot.plt      0x2000043c        0x0 /usr/lib/gcc/arm-none-eabi/4.8/armv7-m/crtbegin.o

vtable          0x20000800      0x400
                0x20000800                PROVIDE (__start_vtable, .)
 vtable         0x20000800      0x400 /tmp/ccEps4N6.o
                0x20000c00                PROVIDE (__stop_vtable, .)
                0x20000c00                . = ALIGN (0x4)

.bss            0x20000c00       0x1c
                0x20000c00                _sbss = .
                0x20000c00                __bss_start__ = _sbss
 *(.bss)
 .bss           0x20000c00        0x0 /usr/lib/gcc/arm-none-eabi/4.8/armv7-m/crti.o
 .bss           0x20000c00       0x1c /usr/lib/gcc/arm-none-eabi/4.8/armv7-m/crtbegin.o
 .bss           0x20000c1c        0x0 /usr/lib/gcc/arm-none-eabi/4.8/../../../arm-none-eabi/lib/armv7-m/crt0.o
 .bss           0x20000c1c        0x0 /tmp/ccUTunIa.o
 .bss           0x20000c1c        0x0 /tmp/ccwKc1Ft.o
 .bss           0x20000c1c        0x0 /tmp/ccY9tR5M.o
 .bss           0x20000c1c        0x0 /tmp/ccEps4N6.o
 .bss           0x20000c1c        0x0 /tmp/ccySXhWq.o
 .bss           0x20000c1c        0x0 /tmp/ccGgTwuL.o
 .bss           0x20000c1c        0x0 /tmp/ccTi1Vm6.o
 .bss           0x20000c1c        0x0 /tmp/ccoefDur.o
 .bss           0x20000c1c        0x0 /tmp/cctoUe3M.o
 .bss           0x20000c1c        0x0 /tmp/ccxLdFT8.o
 .bss           0x20000c1c        0x0 /usr/lib/gcc/arm-none-eabi/4.8/../../../arm-none-eabi/lib/armv7-m/libc.a(lib_a-atexit.o)
 .bss           0x20000c1c        0x0 /usr/lib/gcc/arm-none-eabi/4.8/../../../arm-none-eabi/lib/armv7-m/libc.a(lib_a-exit.o)
 .bss           0x20000c1c        0x0 /usr/lib/gcc/arm-none-eabi/4.8/../../../arm-none-eabi/lib/armv7-m/libc.a(lib_a-fini.o)
 .bss           0x20000c1c        0x0 /usr/lib/gcc/arm-none-eabi/4.8/../../../arm-none-eabi/lib/armv7-m/libc.a(lib_a-impure.o)
 .bss           0x20000c1c        0x0 /usr/lib/gcc/arm-none-eabi/4.8/../../../arm-none-eabi/lib/armv7-m/libc.a(lib_a-init.o)
 .bss           0x20000c1c        0x0 /usr/lib/gcc/arm-none-eabi/4.8/../../../arm-none-eabi/lib/armv7-m/libc.a(lib_a-memset.o)
 .bss           0x20000c1c        0x0 /usr/lib/gcc/arm-none-eabi/4.8/../../../arm-none-eabi/lib/armv7-m/libc.a(lib_a-__atexit.o)
 .bss           0x20000c1c        0x0 /usr/lib/gcc/arm-none-eabi/4.8/../../../arm-none-eabi/lib/armv7-m/libc.a(lib_a-__call_atexit.o)
 .bss           0x20000c1c        0x0 /usr/lib/gcc/arm-none-eabi/4.8/../../../arm-none-eabi/lib/armv7-m/libnosys.a(_exit.o)
 .bss           0x20000c1c        0x0 /usr/lib/gcc/arm-none-eabi/4.8/armv7-m/crtend.o
 .bss           0x20000c1c        0x0 /usr/lib/gcc/arm-none-eabi/4.8/armv7-m/crtn.o
 *(.bss*)
 *(COMMON)
                0x20000c1c                . = ALIGN (0x4)
                0x20000c1c                _ebss = .
                0x20000c1c                __bss_end__ = _ebss

.stack          0x20000c1c      0x104
                0x20000c20                . = ALIGN (0x8)
 *fill*         0x20000c1c        0x4 
                0x20000c20                PROVIDE (end, .)
                0x20000c20                PROVIDE (_end, .)
                0x20000c20                . = (. + _Min_Heap_Size)
                0x20000d1f                . = (. + _Min_Stack_Size)
 *fill*         0x20000c20       0xff 
                0x20000d20                . = ALIGN (0x8)
 *fill*         0x20000d1f        0x1 
OUTPUT(test.out elf32-littlearm)

.ARM.attributes
                0x00000000       0x29
 .ARM.attributes
                0x00000000       0x1d /usr/lib/gcc/arm-none-eabi/4.8/armv7-m/crti.o
 .ARM.attributes
                0x0000001d       0x2d /usr/lib/gcc/arm-none-eabi/4.8/armv7-m/crtbegin.o
 .ARM.attributes
                0x0000004a       0x1b /usr/lib/gcc/arm-none-eabi/4.8/../../../arm-none-eabi/lib/armv7-m/crt0.o
 .ARM.attributes
                0x00000065       0x33 /tmp/ccUTunIa.o
 .ARM.attributes
                0x00000098       0x33 /tmp/ccwKc1Ft.o
 .ARM.attributes
                0x000000cb       0x33 /tmp/ccY9tR5M.o
 .ARM.attributes
                0x000000fe       0x33 /tmp/ccEps4N6.o
 .ARM.attributes
                0x00000131       0x33 /tmp/ccySXhWq.o
 .ARM.attributes
                0x00000164       0x33 /tmp/ccGgTwuL.o
 .ARM.attributes
                0x00000197       0x33 /tmp/ccTi1Vm6.o
 .ARM.attributes
                0x000001ca       0x33 /tmp/ccoefDur.o
 .ARM.attributes
                0x000001fd       0x33 /tmp/cctoUe3M.o
 .ARM.attributes
                0x00000230       0x21 /tmp/ccxLdFT8.o
 .ARM.attributes
                0x00000251       0x2d /usr/lib/gcc/arm-none-eabi/4.8/../../../arm-none-eabi/lib/armv7-m/libc.a(lib_a-atexit.o)
 .ARM.attributes
                0x0000027e       0x2d /usr/lib/gcc/arm-none-eabi/4.8/../../../arm-none-eabi/lib/armv7-m/libc.a(lib_a-exit.o)
 .ARM.attributes
                0x000002ab       0x2d /usr/lib/gcc/arm-none-eabi/4.8/../../../arm-none-eabi/lib/armv7-m/libc.a(lib_a-fini.o)
 .ARM.attributes
                0x000002d8       0x2d /usr/lib/gcc/arm-none-eabi/4.8/../../../arm-none-eabi/lib/armv7-m/libc.a(lib_a-impure.o)
 .ARM.attributes
                0x00000305       0x2d /usr/lib/gcc/arm-none-eabi/4.8/../../../arm-none-eabi/lib/armv7-m/libc.a(lib_a-init.o)
 .ARM.attributes
                0x00000332       0x2d /usr/lib/gcc/arm-none-eabi/4.8/../../../arm-none-eabi/lib/armv7-m/libc.a(lib_a-memset.o)
 .ARM.attributes
                0x0000035f       0x2d /usr/lib/gcc/arm-none-eabi/4.8/../../../arm-none-eabi/lib/armv7-m/libc.a(lib_a-__atexit.o)
 .ARM.attributes
                0x0000038c       0x2d /usr/lib/gcc/arm-none-eabi/4.8/../../../arm-none-eabi/lib/armv7-m/libc.a(lib_a-__call_atexit.o)
 .ARM.attributes
                0x000003b9       0x2d /usr/lib/gcc/arm-none-eabi/4.8/../../../arm-none-eabi/lib/armv7-m/libnosys.a(_exit.o)
 .ARM.attributes
                0x000003e6       0x2d /usr/lib/gcc/arm-none-eabi/4.8/armv7-m/crtend.o
 .ARM.attributes
                0x00000413       0x1d /usr/lib/gcc/arm-none-eabi/4.8/armv7-m/crtn.o

.comment        0x00000000       0x3f
 .comment       0x00000000       0x20 /usr/lib/gcc/arm-none-eabi/4.8/armv7-m/crtbegin.o
                                 0x21 (size before relaxing)
 .comment       0x00000020       0x21 /tmp/ccUTunIa.o
 .comment       0x00000020       0x21 /tmp/ccwKc1Ft.o
 .comment       0x00000020       0x21 /tmp/ccY9tR5M.o
 .comment       0x00000020       0x21 /tmp/ccEps4N6.o
 .comment       0x00000020       0x21 /tmp/ccySXhWq.o
 .comment       0x00000020       0x21 /tmp/ccGgTwuL.o
 .comment       0x00000020       0x21 /tmp/ccTi1Vm6.o
 .comment       0x00000020       0x21 /tmp/ccoefDur.o
 .comment       0x00000020       0x21 /tmp/cctoUe3M.o
 .comment       0x00000020       0x1f /usr/lib/gcc/arm-none-eabi/4.8/../../../arm-none-eabi/lib/armv7-m/libc.a(lib_a-atexit.o)
                                 0x20 (size before relaxing)
 .comment       0x0000003f       0x20 /usr/lib/gcc/arm-none-eabi/4.8/../../../arm-none-eabi/lib/armv7-m/libc.a(lib_a-exit.o)
 .comment       0x0000003f       0x20 /usr/lib/gcc/arm-none-eabi/4.8/../../../arm-none-eabi/lib/armv7-m/libc.a(lib_a-fini.o)
 .comment       0x0000003f       0x20 /usr/lib/gcc/arm-none-eabi/4.8/../../../arm-none-eabi/lib/armv7-m/libc.a(lib_a-impure.o)
 .comment       0x0000003f       0x20 /usr/lib/gcc/arm-none-eabi/4.8/../../../arm-none-eabi/lib/armv7-m/libc.a(lib_a-init.o)
 .comment       0x0000003f       0x20 /usr/lib/gcc/arm-none-eabi/4.8/../../../arm-none-eabi/lib/armv7-m/libc.a(lib_a-memset.o)
 .comment       0x0000003f       0x20 /usr/lib/gcc/arm-none-eabi/4.8/../../../arm-none-eabi/lib/armv7-m/libc.a(lib_a-__atexit.o)
 .comment       0x0000003f       0x20 /usr/lib/gcc/arm-none-eabi/4.8/../../../arm-none-eabi/lib/armv7-m/libc.a(lib_a-__call_atexit.o)
 .comment       0x0000003f       0x20 /usr/lib/gcc/arm-none-eabi/4.8/../../../arm-none-eabi/lib/armv7-m/libnosys.a(_exit.o)
 .comment       0x0000003f       0x21 /usr/lib/gcc/arm-none-eabi/4.8/armv7-m/crtend.o

.debug_line     0x00000000      0x987
 .debug_line    0x00000000       0x7b /usr/lib/gcc/arm-none-eabi/4.8/../../../arm-none-eabi/lib/armv7-m/crt0.o
 .debug_line    0x0000007b       0xba /usr/lib/gcc/arm-none-eabi/4.8/../../../arm-none-eabi/lib/armv7-m/libc.a(lib_a-atexit.o)
 .debug_line    0x00000135      0x165 /usr/lib/gcc/arm-none-eabi/4.8/../../../arm-none-eabi/lib/armv7-m/libc.a(lib_a-exit.o)
 .debug_line    0x0000029a       0x9a /usr/lib/gcc/arm-none-eabi/4.8/../../../arm-none-eabi/lib/armv7-m/libc.a(lib_a-fini.o)
 .debug_line    0x00000334       0xe8 /usr/lib/gcc/arm-none-eabi/4.8/../../../arm-none-eabi/lib/armv7-m/libc.a(lib_a-impure.o)
 .debug_line    0x0000041c       0xb3 /usr/lib/gcc/arm-none-eabi/4.8/../../../arm-none-eabi/lib/armv7-m/libc.a(lib_a-init.o)
 .debug_line    0x000004cf      0x11a /usr/lib/gcc/arm-none-eabi/4.8/../../../arm-none-eabi/lib/armv7-m/libc.a(lib_a-memset.o)
 .debug_line    0x000005e9      0x186 /usr/lib/gcc/arm-none-eabi/4.8/../../../arm-none-eabi/lib/armv7-m/libc.a(lib_a-__atexit.o)
 .debug_line    0x0000076f      0x1c0 /usr/lib/gcc/arm-none-eabi/4.8/../../../arm-none-eabi/lib/armv7-m/libc.a(lib_a-__call_atexit.o)
 .debug_line    0x0000092f       0x58 /usr/lib/gcc/arm-none-eabi/4.8/../../../arm-none-eabi/lib/armv7-m/libnosys.a(_exit.o)

.debug_info     0x00000000     0x2967
 .debug_info    0x00000000       0xa4 /usr/lib/gcc/arm-none-eabi/4.8/../../../arm-none-eabi/lib/armv7-m/crt0.o
 .debug_info    0x000000a4      0x10a /usr/lib/gcc/arm-none-eabi/4.8/../../../arm-none-eabi/lib/armv7-m/libc.a(lib_a-atexit.o)
 .debug_info    0x000001ae      0x8e4 /usr/lib/gcc/arm-none-eabi/4.8/../../../arm-none-eabi/lib/armv7-m/libc.a(lib_a-exit.o)
 .debug_info    0x00000a92       0xef /usr/lib/gcc/arm-none-eabi/4.8/../../../arm-none-eabi/lib/armv7-m/libc.a(lib_a-fini.o)
 .debug_info    0x00000b81      0x894 /usr/lib/gcc/arm-none-eabi/4.8/../../../arm-none-eabi/lib/armv7-m/libc.a(lib_a-impure.o)
 .debug_info    0x00001415      0x105 /usr/lib/gcc/arm-none-eabi/4.8/../../../arm-none-eabi/lib/armv7-m/libc.a(lib_a-init.o)
 .debug_info    0x0000151a      0x117 /usr/lib/gcc/arm-none-eabi/4.8/../../../arm-none-eabi/lib/armv7-m/libc.a(lib_a-memset.o)
 .debug_info    0x00001631      0x934 /usr/lib/gcc/arm-none-eabi/4.8/../../../arm-none-eabi/lib/armv7-m/libc.a(lib_a-__atexit.o)
 .debug_info    0x00001f65      0x9aa /usr/lib/gcc/arm-none-eabi/4.8/../../../arm-none-eabi/lib/armv7-m/libc.a(lib_a-__call_atexit.o)
 .debug_info    0x0000290f       0x58 /usr/lib/gcc/arm-none-eabi/4.8/../../../arm-none-eabi/lib/armv7-m/libnosys.a(_exit.o)

.debug_abbrev   0x00000000      0xb31
 .debug_abbrev  0x00000000       0x14 /usr/lib/gcc/arm-none-eabi/4.8/../../../arm-none-eabi/lib/armv7-m/crt0.o
 .debug_abbrev  0x00000014       0xb8 /usr/lib/gcc/arm-none-eabi/4.8/../../../arm-none-eabi/lib/armv7-m/libc.a(lib_a-atexit.o)
 .debug_abbrev  0x000000cc      0x1e6 /usr/lib/gcc/arm-none-eabi/4.8/../../../arm-none-eabi/lib/armv7-m/libc.a(lib_a-exit.o)
 .debug_abbrev  0x000002b2       0xbd /usr/lib/gcc/arm-none-eabi/4.8/../../../arm-none-eabi/lib/armv7-m/libc.a(lib_a-fini.o)
 .debug_abbrev  0x0000036f      0x180 /usr/lib/gcc/arm-none-eabi/4.8/../../../arm-none-eabi/lib/armv7-m/libc.a(lib_a-impure.o)
 .debug_abbrev  0x000004ef       0xba /usr/lib/gcc/arm-none-eabi/4.8/../../../arm-none-eabi/lib/armv7-m/libc.a(lib_a-init.o)
 .debug_abbrev  0x000005a9       0x9f /usr/lib/gcc/arm-none-eabi/4.8/../../../arm-none-eabi/lib/armv7-m/libc.a(lib_a-memset.o)
 .debug_abbrev  0x00000648      0x20f /usr/lib/gcc/arm-none-eabi/4.8/../../../arm-none-eabi/lib/armv7-m/libc.a(lib_a-__atexit.o)
 .debug_abbrev  0x00000857      0x285 /usr/lib/gcc/arm-none-eabi/4.8/../../../arm-none-eabi/lib/armv7-m/libc.a(lib_a-__call_atexit.o)
 .debug_abbrev  0x00000adc       0x55 /usr/lib/gcc/arm-none-eabi/4.8/../../../arm-none-eabi/lib/armv7-m/libnosys.a(_exit.o)

.debug_aranges  0x00000000      0x140
 .debug_aranges
                0x00000000       0x20 /usr/lib/gcc/arm-none-eabi/4.8/../../../arm-none-eabi/lib/armv7-m/crt0.o
 .debug_aranges
                0x00000020       0x20 /usr/lib/gcc/arm-none-eabi/4.8/../../../arm-none-eabi/lib/armv7-m/libc.a(lib_a-atexit.o)
 .debug_aranges
                0x00000040       0x20 /usr/lib/gcc/arm-none-eabi/4.8/../../../arm-none-eabi/lib/armv7-m/libc.a(lib_a-exit.o)
 .debug_aranges
                0x00000060       0x20 /usr/lib/gcc/arm-none-eabi/4.8/../../../arm-none-eabi/lib/armv7-m/libc.a(lib_a-fini.o)
 .debug_aranges
                0x00000080       0x18 /usr/lib/gcc/arm-none-eabi/4.8/../../../arm-none-eabi/lib/armv7-m/libc.a(lib_a-impure.o)
 .debug_aranges
                0x00000098       0x20 /usr/lib/gcc/arm-none-eabi/4.8/../../../arm-none-eabi/lib/armv7-m/libc.a(lib_a-init.o)
 .debug_aranges
                0x000000b8       0x20 /usr/lib/gcc/arm-none-eabi/4.8/../../../arm-none-eabi/lib/armv7-m/libc.a(lib_a-memset.o)
 .debug_aranges
                0x000000d8       0x20 /usr/lib/gcc/arm-none-eabi/4.8/../../../arm-none-eabi/lib/armv7-m/libc.a(lib_a-__atexit.o)
 .debug_aranges
                0x000000f8       0x28 /usr/lib/gcc/arm-none-eabi/4.8/../../../arm-none-eabi/lib/armv7-m/libc.a(lib_a-__call_atexit.o)
 .debug_aranges
                0x00000120       0x20 /usr/lib/gcc/arm-none-eabi/4.8/../../../arm-none-eabi/lib/armv7-m/libnosys.a(_exit.o)

.debug_loc      0x00000000      0x581
 .debug_loc     0x00000000       0x2c /usr/lib/gcc/arm-none-eabi/4.8/../../../arm-none-eabi/lib/armv7-m/libc.a(lib_a-atexit.o)
 .debug_loc     0x0000002c       0x1e /usr/lib/gcc/arm-none-eabi/4.8/../../../arm-none-eabi/lib/armv7-m/libc.a(lib_a-exit.o)
 .debug_loc     0x0000004a       0x5c /usr/lib/gcc/arm-none-eabi/4.8/../../../arm-none-eabi/lib/armv7-m/libc.a(lib_a-fini.o)
 .debug_loc     0x000000a6       0xae /usr/lib/gcc/arm-none-eabi/4.8/../../../arm-none-eabi/lib/armv7-m/libc.a(lib_a-init.o)
 .debug_loc     0x00000154      0x18b /usr/lib/gcc/arm-none-eabi/4.8/../../../arm-none-eabi/lib/armv7-m/libc.a(lib_a-memset.o)
 .debug_loc     0x000002df      0x14d /usr/lib/gcc/arm-none-eabi/4.8/../../../arm-none-eabi/lib/armv7-m/libc.a(lib_a-__atexit.o)
 .debug_loc     0x0000042c      0x155 /usr/lib/gcc/arm-none-eabi/4.8/../../../arm-none-eabi/lib/armv7-m/libc.a(lib_a-__call_atexit.o)

.debug_ranges   0x00000000       0xa8
 .debug_ranges  0x00000000       0x10 /usr/lib/gcc/arm-none-eabi/4.8/../../../arm-none-eabi/lib/armv7-m/libc.a(lib_a-atexit.o)
 .debug_ranges  0x00000010       0x10 /usr/lib/gcc/arm-none-eabi/4.8/../../../arm-none-eabi/lib/armv7-m/libc.a(lib_a-exit.o)
 .debug_ranges  0x00000020       0x10 /usr/lib/gcc/arm-none-eabi/4.8/../../../arm-none-eabi/lib/armv7-m/libc.a(lib_a-fini.o)
 .debug_ranges  0x00000030       0x10 /usr/lib/gcc/arm-none-eabi/4.8/../../../arm-none-eabi/lib/armv7-m/libc.a(lib_a-init.o)
 .debug_ranges  0x00000040       0x10 /usr/lib/gcc/arm-none-eabi/4.8/../../../arm-none-eabi/lib/armv7-m/libc.a(lib_a-memset.o)
 .debug_ranges  0x00000050       0x10 /usr/lib/gcc/arm-none-eabi/4.8/../../../arm-none-eabi/lib/armv7-m/libc.a(lib_a-__atexit.o)
 .debug_ranges  0x00000060       0x38 /usr/lib/gcc/arm-none-eabi/4.8/../../../arm-none-eabi/lib/armv7-m/libc.a(lib_a-__call_atexit.o)
 .debug_ranges  0x00000098       0x10 /usr/lib/gcc/arm-none-eabi/4.8/../../../arm-none-eabi/lib/armv7-m/libnosys.a(_exit.o)

.debug_str      0x00000000      0x99a
 .debug_str     0x00000000      0x19b /usr/lib/gcc/arm-none-eabi/4.8/../../../arm-none-eabi/lib/armv7-m/libc.a(lib_a-atexit.o)
                                0x1db (size before relaxing)
 .debug_str     0x0000019b      0x3f0 /usr/lib/gcc/arm-none-eabi/4.8/../../../arm-none-eabi/lib/armv7-m/libc.a(lib_a-exit.o)
                                0x578 (size before relaxing)
 .debug_str     0x0000058b       0xc3 /usr/lib/gcc/arm-none-eabi/4.8/../../../arm-none-eabi/lib/armv7-m/libc.a(lib_a-fini.o)
                                0x1d3 (size before relaxing)
 .debug_str     0x0000064e       0x96 /usr/lib/gcc/arm-none-eabi/4.8/../../../arm-none-eabi/lib/armv7-m/libc.a(lib_a-impure.o)
                                0x56f (size before relaxing)
 .debug_str     0x000006e4       0x90 /usr/lib/gcc/arm-none-eabi/4.8/../../../arm-none-eabi/lib/armv7-m/libc.a(lib_a-init.o)
                                0x1fd (size before relaxing)
 .debug_str     0x00000774       0xa7 /usr/lib/gcc/arm-none-eabi/4.8/../../../arm-none-eabi/lib/armv7-m/libc.a(lib_a-memset.o)
                                0x1b2 (size before relaxing)
 .debug_str     0x0000081b       0x30 /usr/lib/gcc/arm-none-eabi/4.8/../../../arm-none-eabi/lib/armv7-m/libc.a(lib_a-__atexit.o)
                                0x5b7 (size before relaxing)
 .debug_str     0x0000084b       0x70 /usr/lib/gcc/arm-none-eabi/4.8/../../../arm-none-eabi/lib/armv7-m/libc.a(lib_a-__call_atexit.o)
                                0x5cf (size before relaxing)
 .debug_str     0x000008bb       0xdf /usr/lib/gcc/arm-none-eabi/4.8/../../../arm-none-eabi/lib/armv7-m/libnosys.a(_exit.o)
                                 0xe5 (size before relaxing)

.debug_frame    0x00000000      0x164
 .debug_frame   0x00000000       0x20 /usr/lib/gcc/arm-none-eabi/4.8/../../../arm-none-eabi/lib/armv7-m/libc.a(lib_a-atexit.o)
 .debug_frame   0x00000020       0x28 /usr/lib/gcc/arm-none-eabi/4.8/../../../arm-none-eabi/lib/armv7-m/libc.a(lib_a-exit.o)
 .debug_frame   0x00000048       0x2c /usr/lib/gcc/arm-none-eabi/4.8/../../../arm-none-eabi/lib/armv7-m/libc.a(lib_a-fini.o)
 .debug_frame   0x00000074       0x2c /usr/lib/gcc/arm-none-eabi/4.8/../../../arm-none-eabi/lib/armv7-m/libc.a(lib_a-init.o)
 .debug_frame   0x000000a0       0x2c /usr/lib/gcc/arm-none-eabi/4.8/../../../arm-none-eabi/lib/armv7-m/libc.a(lib_a-memset.o)
 .debug_frame   0x000000cc       0x30 /usr/lib/gcc/arm-none-eabi/4.8/../../../arm-none-eabi/lib/armv7-m/libc.a(lib_a-__atexit.o)
 .debug_frame   0x000000fc       0x48 /usr/lib/gcc/arm-none-eabi/4.8/../../../arm-none-eabi/lib/armv7-m/libc.a(lib_a-__call_atexit.o)
 .debug_frame   0x00000144       0x20 /usr/lib/gcc/arm-none-eabi/4.8/../../../arm-none-eabi/lib/armv7-m/libnosys.a(_exit.o)
